
./kernel:     file format elf32-littlearm


Disassembly of section .text:

00008000 <_start>:
_start():
/home/cf/ZCU/OS/practical/ex3/original/kernel/src/start.s:8
;@ tady budou symboly, ktere chceme na zacatek kodove sekce
.section .text.start

;@ vstupni bod do kernelu - nechame ho vlozit na zacatek kodu
_start:
    mov sp,#0x8000			;@ nastavime stack pointer na spodek zasobniku
    8000:	e3a0d902 	mov	sp, #32768	; 0x8000
/home/cf/ZCU/OS/practical/ex3/original/kernel/src/start.s:9
	bl _c_startup			;@ C startup kod (inicializace prostredi)
    8004:	eb0002e2 	bl	8b94 <_c_startup>
/home/cf/ZCU/OS/practical/ex3/original/kernel/src/start.s:10
	bl _cpp_startup			;@ C++ startup kod (volani globalnich konstruktoru, ...)
    8008:	eb0002fb 	bl	8bfc <_cpp_startup>
/home/cf/ZCU/OS/practical/ex3/original/kernel/src/start.s:11
    bl _kernel_main			;@ skocime do hlavniho kodu jadra (v C)
    800c:	eb0002a3 	bl	8aa0 <_kernel_main>
/home/cf/ZCU/OS/practical/ex3/original/kernel/src/start.s:12
	bl _cpp_shutdown		;@ C++ shutdown kod (volani globalnich destruktoru, ...)
    8010:	eb00030f 	bl	8c54 <_cpp_shutdown>

00008014 <hang>:
hang():
/home/cf/ZCU/OS/practical/ex3/original/kernel/src/start.s:14
hang:
    b hang
    8014:	eafffffe 	b	8014 <hang>

00008018 <__cxa_guard_acquire>:
__cxa_guard_acquire():
/home/cf/ZCU/OS/practical/ex3/original/kernel/src/cxx.cpp:11
	extern "C" int __cxa_guard_acquire (__guard *);
	extern "C" void __cxa_guard_release (__guard *);
	extern "C" void __cxa_guard_abort (__guard *);

	extern "C" int __cxa_guard_acquire (__guard *g)
	{
    8018:	e52db004 	push	{fp}		; (str fp, [sp, #-4]!)
    801c:	e28db000 	add	fp, sp, #0
    8020:	e24dd00c 	sub	sp, sp, #12
    8024:	e50b0008 	str	r0, [fp, #-8]
/home/cf/ZCU/OS/practical/ex3/original/kernel/src/cxx.cpp:12
		return !*(char *)(g);
    8028:	e51b3008 	ldr	r3, [fp, #-8]
    802c:	e5d33000 	ldrb	r3, [r3]
    8030:	e3530000 	cmp	r3, #0
    8034:	03a03001 	moveq	r3, #1
    8038:	13a03000 	movne	r3, #0
    803c:	e6ef3073 	uxtb	r3, r3
/home/cf/ZCU/OS/practical/ex3/original/kernel/src/cxx.cpp:13
	}
    8040:	e1a00003 	mov	r0, r3
    8044:	e28bd000 	add	sp, fp, #0
    8048:	e49db004 	pop	{fp}		; (ldr fp, [sp], #4)
    804c:	e12fff1e 	bx	lr

00008050 <__cxa_guard_release>:
__cxa_guard_release():
/home/cf/ZCU/OS/practical/ex3/original/kernel/src/cxx.cpp:16

	extern "C" void __cxa_guard_release (__guard *g)
	{
    8050:	e52db004 	push	{fp}		; (str fp, [sp, #-4]!)
    8054:	e28db000 	add	fp, sp, #0
    8058:	e24dd00c 	sub	sp, sp, #12
    805c:	e50b0008 	str	r0, [fp, #-8]
/home/cf/ZCU/OS/practical/ex3/original/kernel/src/cxx.cpp:17
		*(char *)g = 1;
    8060:	e51b3008 	ldr	r3, [fp, #-8]
    8064:	e3a02001 	mov	r2, #1
    8068:	e5c32000 	strb	r2, [r3]
/home/cf/ZCU/OS/practical/ex3/original/kernel/src/cxx.cpp:18
	}
    806c:	e320f000 	nop	{0}
    8070:	e28bd000 	add	sp, fp, #0
    8074:	e49db004 	pop	{fp}		; (ldr fp, [sp], #4)
    8078:	e12fff1e 	bx	lr

0000807c <__cxa_guard_abort>:
__cxa_guard_abort():
/home/cf/ZCU/OS/practical/ex3/original/kernel/src/cxx.cpp:21

	extern "C" void __cxa_guard_abort (__guard *)
	{
    807c:	e52db004 	push	{fp}		; (str fp, [sp, #-4]!)
    8080:	e28db000 	add	fp, sp, #0
    8084:	e24dd00c 	sub	sp, sp, #12
    8088:	e50b0008 	str	r0, [fp, #-8]
/home/cf/ZCU/OS/practical/ex3/original/kernel/src/cxx.cpp:23

	}
    808c:	e320f000 	nop	{0}
    8090:	e28bd000 	add	sp, fp, #0
    8094:	e49db004 	pop	{fp}		; (ldr fp, [sp], #4)
    8098:	e12fff1e 	bx	lr

0000809c <__dso_handle>:
__dso_handle():
/home/cf/ZCU/OS/practical/ex3/original/kernel/src/cxx.cpp:27
}

extern "C" void __dso_handle()
{
    809c:	e52db004 	push	{fp}		; (str fp, [sp, #-4]!)
    80a0:	e28db000 	add	fp, sp, #0
/home/cf/ZCU/OS/practical/ex3/original/kernel/src/cxx.cpp:29
    // ignore dtors for now
}
    80a4:	e320f000 	nop	{0}
    80a8:	e28bd000 	add	sp, fp, #0
    80ac:	e49db004 	pop	{fp}		; (ldr fp, [sp], #4)
    80b0:	e12fff1e 	bx	lr

000080b4 <__cxa_atexit>:
__cxa_atexit():
/home/cf/ZCU/OS/practical/ex3/original/kernel/src/cxx.cpp:32

extern "C" void __cxa_atexit()
{
    80b4:	e52db004 	push	{fp}		; (str fp, [sp, #-4]!)
    80b8:	e28db000 	add	fp, sp, #0
/home/cf/ZCU/OS/practical/ex3/original/kernel/src/cxx.cpp:34
    // ignore dtors for now
}
    80bc:	e320f000 	nop	{0}
    80c0:	e28bd000 	add	sp, fp, #0
    80c4:	e49db004 	pop	{fp}		; (ldr fp, [sp], #4)
    80c8:	e12fff1e 	bx	lr

000080cc <__cxa_pure_virtual>:
__cxa_pure_virtual():
/home/cf/ZCU/OS/practical/ex3/original/kernel/src/cxx.cpp:37

extern "C" void __cxa_pure_virtual()
{
    80cc:	e52db004 	push	{fp}		; (str fp, [sp, #-4]!)
    80d0:	e28db000 	add	fp, sp, #0
/home/cf/ZCU/OS/practical/ex3/original/kernel/src/cxx.cpp:39
    // pure virtual method called
}
    80d4:	e320f000 	nop	{0}
    80d8:	e28bd000 	add	sp, fp, #0
    80dc:	e49db004 	pop	{fp}		; (ldr fp, [sp], #4)
    80e0:	e12fff1e 	bx	lr

000080e4 <__aeabi_unwind_cpp_pr1>:
__aeabi_unwind_cpp_pr1():
/home/cf/ZCU/OS/practical/ex3/original/kernel/src/cxx.cpp:42

extern "C" void __aeabi_unwind_cpp_pr1()
{
    80e4:	e52db004 	push	{fp}		; (str fp, [sp, #-4]!)
    80e8:	e28db000 	add	fp, sp, #0
/home/cf/ZCU/OS/practical/ex3/original/kernel/src/cxx.cpp:43 (discriminator 1)
	while (true)
    80ec:	eafffffe 	b	80ec <__aeabi_unwind_cpp_pr1+0x8>

000080f0 <_ZN4CAUXC1Ej>:
_ZN4CAUXC2Ej():
/home/cf/ZCU/OS/practical/ex3/original/kernel/src/drivers/bcm_aux.cpp:5
#include <drivers/bcm_aux.h>

CAUX sAUX(hal::AUX_Base);

CAUX::CAUX(unsigned int aux_base)
    80f0:	e52db004 	push	{fp}		; (str fp, [sp, #-4]!)
    80f4:	e28db000 	add	fp, sp, #0
    80f8:	e24dd00c 	sub	sp, sp, #12
    80fc:	e50b0008 	str	r0, [fp, #-8]
    8100:	e50b100c 	str	r1, [fp, #-12]
/home/cf/ZCU/OS/practical/ex3/original/kernel/src/drivers/bcm_aux.cpp:6
    : mAUX_Reg(reinterpret_cast<unsigned int*>(aux_base))
    8104:	e51b200c 	ldr	r2, [fp, #-12]
    8108:	e51b3008 	ldr	r3, [fp, #-8]
    810c:	e5832000 	str	r2, [r3]
/home/cf/ZCU/OS/practical/ex3/original/kernel/src/drivers/bcm_aux.cpp:9
{
    //
}
    8110:	e51b3008 	ldr	r3, [fp, #-8]
    8114:	e1a00003 	mov	r0, r3
    8118:	e28bd000 	add	sp, fp, #0
    811c:	e49db004 	pop	{fp}		; (ldr fp, [sp], #4)
    8120:	e12fff1e 	bx	lr

00008124 <_ZN4CAUX6EnableEN3hal15AUX_PeripheralsE>:
_ZN4CAUX6EnableEN3hal15AUX_PeripheralsE():
/home/cf/ZCU/OS/practical/ex3/original/kernel/src/drivers/bcm_aux.cpp:12

void CAUX::Enable(hal::AUX_Peripherals aux_peripheral)
{
    8124:	e92d4800 	push	{fp, lr}
    8128:	e28db004 	add	fp, sp, #4
    812c:	e24dd008 	sub	sp, sp, #8
    8130:	e50b0008 	str	r0, [fp, #-8]
    8134:	e50b100c 	str	r1, [fp, #-12]
/home/cf/ZCU/OS/practical/ex3/original/kernel/src/drivers/bcm_aux.cpp:13
    Set_Register(hal::AUX_Reg::ENABLES, Get_Register(hal::AUX_Reg::ENABLES) | (1 << static_cast<uint32_t>(aux_peripheral)));
    8138:	e3a01001 	mov	r1, #1
    813c:	e51b0008 	ldr	r0, [fp, #-8]
    8140:	eb000031 	bl	820c <_ZN4CAUX12Get_RegisterEN3hal7AUX_RegE>
    8144:	e1a02000 	mov	r2, r0
    8148:	e51b300c 	ldr	r3, [fp, #-12]
    814c:	e3a01001 	mov	r1, #1
    8150:	e1a03311 	lsl	r3, r1, r3
    8154:	e1823003 	orr	r3, r2, r3
    8158:	e1a02003 	mov	r2, r3
    815c:	e3a01001 	mov	r1, #1
    8160:	e51b0008 	ldr	r0, [fp, #-8]
    8164:	eb000017 	bl	81c8 <_ZN4CAUX12Set_RegisterEN3hal7AUX_RegEj>
/home/cf/ZCU/OS/practical/ex3/original/kernel/src/drivers/bcm_aux.cpp:14
}
    8168:	e320f000 	nop	{0}
    816c:	e24bd004 	sub	sp, fp, #4
    8170:	e8bd8800 	pop	{fp, pc}

00008174 <_ZN4CAUX7DisableEN3hal15AUX_PeripheralsE>:
_ZN4CAUX7DisableEN3hal15AUX_PeripheralsE():
/home/cf/ZCU/OS/practical/ex3/original/kernel/src/drivers/bcm_aux.cpp:17

void CAUX::Disable(hal::AUX_Peripherals aux_peripheral)
{
    8174:	e92d4800 	push	{fp, lr}
    8178:	e28db004 	add	fp, sp, #4
    817c:	e24dd008 	sub	sp, sp, #8
    8180:	e50b0008 	str	r0, [fp, #-8]
    8184:	e50b100c 	str	r1, [fp, #-12]
/home/cf/ZCU/OS/practical/ex3/original/kernel/src/drivers/bcm_aux.cpp:18
    Set_Register(hal::AUX_Reg::ENABLES, Get_Register(hal::AUX_Reg::ENABLES) & ~(1 << static_cast<uint32_t>(aux_peripheral)));
    8188:	e3a01001 	mov	r1, #1
    818c:	e51b0008 	ldr	r0, [fp, #-8]
    8190:	eb00001d 	bl	820c <_ZN4CAUX12Get_RegisterEN3hal7AUX_RegE>
    8194:	e1a02000 	mov	r2, r0
    8198:	e51b300c 	ldr	r3, [fp, #-12]
    819c:	e3a01001 	mov	r1, #1
    81a0:	e1a03311 	lsl	r3, r1, r3
    81a4:	e1e03003 	mvn	r3, r3
    81a8:	e0033002 	and	r3, r3, r2
    81ac:	e1a02003 	mov	r2, r3
    81b0:	e3a01001 	mov	r1, #1
    81b4:	e51b0008 	ldr	r0, [fp, #-8]
    81b8:	eb000002 	bl	81c8 <_ZN4CAUX12Set_RegisterEN3hal7AUX_RegEj>
/home/cf/ZCU/OS/practical/ex3/original/kernel/src/drivers/bcm_aux.cpp:19
}
    81bc:	e320f000 	nop	{0}
    81c0:	e24bd004 	sub	sp, fp, #4
    81c4:	e8bd8800 	pop	{fp, pc}

000081c8 <_ZN4CAUX12Set_RegisterEN3hal7AUX_RegEj>:
_ZN4CAUX12Set_RegisterEN3hal7AUX_RegEj():
/home/cf/ZCU/OS/practical/ex3/original/kernel/src/drivers/bcm_aux.cpp:22

void CAUX::Set_Register(hal::AUX_Reg reg_idx, uint32_t value)
{
    81c8:	e52db004 	push	{fp}		; (str fp, [sp, #-4]!)
    81cc:	e28db000 	add	fp, sp, #0
    81d0:	e24dd014 	sub	sp, sp, #20
    81d4:	e50b0008 	str	r0, [fp, #-8]
    81d8:	e50b100c 	str	r1, [fp, #-12]
    81dc:	e50b2010 	str	r2, [fp, #-16]
/home/cf/ZCU/OS/practical/ex3/original/kernel/src/drivers/bcm_aux.cpp:23
    mAUX_Reg[static_cast<unsigned int>(reg_idx)] = value;
    81e0:	e51b3008 	ldr	r3, [fp, #-8]
    81e4:	e5932000 	ldr	r2, [r3]
    81e8:	e51b300c 	ldr	r3, [fp, #-12]
    81ec:	e1a03103 	lsl	r3, r3, #2
    81f0:	e0823003 	add	r3, r2, r3
    81f4:	e51b2010 	ldr	r2, [fp, #-16]
    81f8:	e5832000 	str	r2, [r3]
/home/cf/ZCU/OS/practical/ex3/original/kernel/src/drivers/bcm_aux.cpp:24
}
    81fc:	e320f000 	nop	{0}
    8200:	e28bd000 	add	sp, fp, #0
    8204:	e49db004 	pop	{fp}		; (ldr fp, [sp], #4)
    8208:	e12fff1e 	bx	lr

0000820c <_ZN4CAUX12Get_RegisterEN3hal7AUX_RegE>:
_ZN4CAUX12Get_RegisterEN3hal7AUX_RegE():
/home/cf/ZCU/OS/practical/ex3/original/kernel/src/drivers/bcm_aux.cpp:27

uint32_t CAUX::Get_Register(hal::AUX_Reg reg_idx)
{
    820c:	e52db004 	push	{fp}		; (str fp, [sp, #-4]!)
    8210:	e28db000 	add	fp, sp, #0
    8214:	e24dd00c 	sub	sp, sp, #12
    8218:	e50b0008 	str	r0, [fp, #-8]
    821c:	e50b100c 	str	r1, [fp, #-12]
/home/cf/ZCU/OS/practical/ex3/original/kernel/src/drivers/bcm_aux.cpp:28
    return mAUX_Reg[static_cast<unsigned int>(reg_idx)];
    8220:	e51b3008 	ldr	r3, [fp, #-8]
    8224:	e5932000 	ldr	r2, [r3]
    8228:	e51b300c 	ldr	r3, [fp, #-12]
    822c:	e1a03103 	lsl	r3, r3, #2
    8230:	e0823003 	add	r3, r2, r3
    8234:	e5933000 	ldr	r3, [r3]
/home/cf/ZCU/OS/practical/ex3/original/kernel/src/drivers/bcm_aux.cpp:29
}
    8238:	e1a00003 	mov	r0, r3
    823c:	e28bd000 	add	sp, fp, #0
    8240:	e49db004 	pop	{fp}		; (ldr fp, [sp], #4)
    8244:	e12fff1e 	bx	lr

00008248 <_Z41__static_initialization_and_destruction_0ii>:
_Z41__static_initialization_and_destruction_0ii():
/home/cf/ZCU/OS/practical/ex3/original/kernel/src/drivers/bcm_aux.cpp:29
    8248:	e92d4800 	push	{fp, lr}
    824c:	e28db004 	add	fp, sp, #4
    8250:	e24dd008 	sub	sp, sp, #8
    8254:	e50b0008 	str	r0, [fp, #-8]
    8258:	e50b100c 	str	r1, [fp, #-12]
    825c:	e51b3008 	ldr	r3, [fp, #-8]
    8260:	e3530001 	cmp	r3, #1
    8264:	1a000006 	bne	8284 <_Z41__static_initialization_and_destruction_0ii+0x3c>
/home/cf/ZCU/OS/practical/ex3/original/kernel/src/drivers/bcm_aux.cpp:29 (discriminator 1)
    8268:	e51b300c 	ldr	r3, [fp, #-12]
    826c:	e59f201c 	ldr	r2, [pc, #28]	; 8290 <_Z41__static_initialization_and_destruction_0ii+0x48>
    8270:	e1530002 	cmp	r3, r2
    8274:	1a000002 	bne	8284 <_Z41__static_initialization_and_destruction_0ii+0x3c>
/home/cf/ZCU/OS/practical/ex3/original/kernel/src/drivers/bcm_aux.cpp:3
CAUX sAUX(hal::AUX_Base);
    8278:	e59f1014 	ldr	r1, [pc, #20]	; 8294 <_Z41__static_initialization_and_destruction_0ii+0x4c>
    827c:	e59f0014 	ldr	r0, [pc, #20]	; 8298 <_Z41__static_initialization_and_destruction_0ii+0x50>
    8280:	ebffff9a 	bl	80f0 <_ZN4CAUXC1Ej>
/home/cf/ZCU/OS/practical/ex3/original/kernel/src/drivers/bcm_aux.cpp:29
}
    8284:	e320f000 	nop	{0}
    8288:	e24bd004 	sub	sp, fp, #4
    828c:	e8bd8800 	pop	{fp, pc}
    8290:	0000ffff 	strdeq	pc, [r0], -pc	; <UNPREDICTABLE>
    8294:	20215000 	eorcs	r5, r1, r0
    8298:	00008ff0 	strdeq	r8, [r0], -r0

0000829c <_GLOBAL__sub_I_sAUX>:
_GLOBAL__sub_I_sAUX():
/home/cf/ZCU/OS/practical/ex3/original/kernel/src/drivers/bcm_aux.cpp:29
    829c:	e92d4800 	push	{fp, lr}
    82a0:	e28db004 	add	fp, sp, #4
    82a4:	e59f1008 	ldr	r1, [pc, #8]	; 82b4 <_GLOBAL__sub_I_sAUX+0x18>
    82a8:	e3a00001 	mov	r0, #1
    82ac:	ebffffe5 	bl	8248 <_Z41__static_initialization_and_destruction_0ii>
    82b0:	e8bd8800 	pop	{fp, pc}
    82b4:	0000ffff 	strdeq	pc, [r0], -pc	; <UNPREDICTABLE>

000082b8 <_ZN13CGPIO_HandlerC1Ej>:
_ZN13CGPIO_HandlerC2Ej():
/home/cf/ZCU/OS/practical/ex3/original/kernel/src/drivers/gpio.cpp:6
#include <hal/peripherals.h>
#include <drivers/gpio.h>

CGPIO_Handler sGPIO(hal::GPIO_Base);

CGPIO_Handler::CGPIO_Handler(unsigned int gpio_base_addr)
    82b8:	e52db004 	push	{fp}		; (str fp, [sp, #-4]!)
    82bc:	e28db000 	add	fp, sp, #0
    82c0:	e24dd00c 	sub	sp, sp, #12
    82c4:	e50b0008 	str	r0, [fp, #-8]
    82c8:	e50b100c 	str	r1, [fp, #-12]
/home/cf/ZCU/OS/practical/ex3/original/kernel/src/drivers/gpio.cpp:7
	: mGPIO(reinterpret_cast<unsigned int*>(gpio_base_addr))
    82cc:	e51b200c 	ldr	r2, [fp, #-12]
    82d0:	e51b3008 	ldr	r3, [fp, #-8]
    82d4:	e5832000 	str	r2, [r3]
/home/cf/ZCU/OS/practical/ex3/original/kernel/src/drivers/gpio.cpp:10
{
	//
}
    82d8:	e51b3008 	ldr	r3, [fp, #-8]
    82dc:	e1a00003 	mov	r0, r3
    82e0:	e28bd000 	add	sp, fp, #0
    82e4:	e49db004 	pop	{fp}		; (ldr fp, [sp], #4)
    82e8:	e12fff1e 	bx	lr

000082ec <_ZNK13CGPIO_Handler19Get_GPFSEL_LocationEjRjS0_>:
_ZNK13CGPIO_Handler19Get_GPFSEL_LocationEjRjS0_():
/home/cf/ZCU/OS/practical/ex3/original/kernel/src/drivers/gpio.cpp:13

bool CGPIO_Handler::Get_GPFSEL_Location(uint32_t pin, uint32_t& reg, uint32_t& bit_idx) const
{
    82ec:	e52db004 	push	{fp}		; (str fp, [sp, #-4]!)
    82f0:	e28db000 	add	fp, sp, #0
    82f4:	e24dd014 	sub	sp, sp, #20
    82f8:	e50b0008 	str	r0, [fp, #-8]
    82fc:	e50b100c 	str	r1, [fp, #-12]
    8300:	e50b2010 	str	r2, [fp, #-16]
    8304:	e50b3014 	str	r3, [fp, #-20]	; 0xffffffec
/home/cf/ZCU/OS/practical/ex3/original/kernel/src/drivers/gpio.cpp:14
	if (pin > hal::GPIO_Pin_Count)
    8308:	e51b300c 	ldr	r3, [fp, #-12]
    830c:	e3530036 	cmp	r3, #54	; 0x36
    8310:	9a000001 	bls	831c <_ZNK13CGPIO_Handler19Get_GPFSEL_LocationEjRjS0_+0x30>
/home/cf/ZCU/OS/practical/ex3/original/kernel/src/drivers/gpio.cpp:15
		return false;
    8314:	e3a03000 	mov	r3, #0
    8318:	ea000033 	b	83ec <_ZNK13CGPIO_Handler19Get_GPFSEL_LocationEjRjS0_+0x100>
/home/cf/ZCU/OS/practical/ex3/original/kernel/src/drivers/gpio.cpp:17
	
	switch (pin / 10)
    831c:	e51b300c 	ldr	r3, [fp, #-12]
    8320:	e59f20d4 	ldr	r2, [pc, #212]	; 83fc <_ZNK13CGPIO_Handler19Get_GPFSEL_LocationEjRjS0_+0x110>
    8324:	e0832392 	umull	r2, r3, r2, r3
    8328:	e1a031a3 	lsr	r3, r3, #3
    832c:	e3530005 	cmp	r3, #5
    8330:	979ff103 	ldrls	pc, [pc, r3, lsl #2]
    8334:	ea00001d 	b	83b0 <_ZNK13CGPIO_Handler19Get_GPFSEL_LocationEjRjS0_+0xc4>
    8338:	00008350 	andeq	r8, r0, r0, asr r3
    833c:	00008360 	andeq	r8, r0, r0, ror #6
    8340:	00008370 	andeq	r8, r0, r0, ror r3
    8344:	00008380 	andeq	r8, r0, r0, lsl #7
    8348:	00008390 	muleq	r0, r0, r3
    834c:	000083a0 	andeq	r8, r0, r0, lsr #7
/home/cf/ZCU/OS/practical/ex3/original/kernel/src/drivers/gpio.cpp:19
	{
		case 0: reg = static_cast<uint32_t>(hal::GPIO_Reg::GPFSEL0); break;
    8350:	e51b3010 	ldr	r3, [fp, #-16]
    8354:	e3a02000 	mov	r2, #0
    8358:	e5832000 	str	r2, [r3]
    835c:	ea000013 	b	83b0 <_ZNK13CGPIO_Handler19Get_GPFSEL_LocationEjRjS0_+0xc4>
/home/cf/ZCU/OS/practical/ex3/original/kernel/src/drivers/gpio.cpp:20
		case 1: reg = static_cast<uint32_t>(hal::GPIO_Reg::GPFSEL1); break;
    8360:	e51b3010 	ldr	r3, [fp, #-16]
    8364:	e3a02001 	mov	r2, #1
    8368:	e5832000 	str	r2, [r3]
    836c:	ea00000f 	b	83b0 <_ZNK13CGPIO_Handler19Get_GPFSEL_LocationEjRjS0_+0xc4>
/home/cf/ZCU/OS/practical/ex3/original/kernel/src/drivers/gpio.cpp:21
		case 2: reg = static_cast<uint32_t>(hal::GPIO_Reg::GPFSEL2); break;
    8370:	e51b3010 	ldr	r3, [fp, #-16]
    8374:	e3a02002 	mov	r2, #2
    8378:	e5832000 	str	r2, [r3]
    837c:	ea00000b 	b	83b0 <_ZNK13CGPIO_Handler19Get_GPFSEL_LocationEjRjS0_+0xc4>
/home/cf/ZCU/OS/practical/ex3/original/kernel/src/drivers/gpio.cpp:22
		case 3: reg = static_cast<uint32_t>(hal::GPIO_Reg::GPFSEL3); break;
    8380:	e51b3010 	ldr	r3, [fp, #-16]
    8384:	e3a02003 	mov	r2, #3
    8388:	e5832000 	str	r2, [r3]
    838c:	ea000007 	b	83b0 <_ZNK13CGPIO_Handler19Get_GPFSEL_LocationEjRjS0_+0xc4>
/home/cf/ZCU/OS/practical/ex3/original/kernel/src/drivers/gpio.cpp:23
		case 4: reg = static_cast<uint32_t>(hal::GPIO_Reg::GPFSEL4); break;
    8390:	e51b3010 	ldr	r3, [fp, #-16]
    8394:	e3a02004 	mov	r2, #4
    8398:	e5832000 	str	r2, [r3]
    839c:	ea000003 	b	83b0 <_ZNK13CGPIO_Handler19Get_GPFSEL_LocationEjRjS0_+0xc4>
/home/cf/ZCU/OS/practical/ex3/original/kernel/src/drivers/gpio.cpp:24
		case 5: reg = static_cast<uint32_t>(hal::GPIO_Reg::GPFSEL5); break;
    83a0:	e51b3010 	ldr	r3, [fp, #-16]
    83a4:	e3a02005 	mov	r2, #5
    83a8:	e5832000 	str	r2, [r3]
    83ac:	e320f000 	nop	{0}
/home/cf/ZCU/OS/practical/ex3/original/kernel/src/drivers/gpio.cpp:27
	}
	
	bit_idx = (pin % 10) * 3;
    83b0:	e51b100c 	ldr	r1, [fp, #-12]
    83b4:	e59f3040 	ldr	r3, [pc, #64]	; 83fc <_ZNK13CGPIO_Handler19Get_GPFSEL_LocationEjRjS0_+0x110>
    83b8:	e0832193 	umull	r2, r3, r3, r1
    83bc:	e1a021a3 	lsr	r2, r3, #3
    83c0:	e1a03002 	mov	r3, r2
    83c4:	e1a03103 	lsl	r3, r3, #2
    83c8:	e0833002 	add	r3, r3, r2
    83cc:	e1a03083 	lsl	r3, r3, #1
    83d0:	e0412003 	sub	r2, r1, r3
    83d4:	e1a03002 	mov	r3, r2
    83d8:	e1a03083 	lsl	r3, r3, #1
    83dc:	e0832002 	add	r2, r3, r2
    83e0:	e51b3014 	ldr	r3, [fp, #-20]	; 0xffffffec
    83e4:	e5832000 	str	r2, [r3]
/home/cf/ZCU/OS/practical/ex3/original/kernel/src/drivers/gpio.cpp:29
	
	return true;
    83e8:	e3a03001 	mov	r3, #1
/home/cf/ZCU/OS/practical/ex3/original/kernel/src/drivers/gpio.cpp:30
}
    83ec:	e1a00003 	mov	r0, r3
    83f0:	e28bd000 	add	sp, fp, #0
    83f4:	e49db004 	pop	{fp}		; (ldr fp, [sp], #4)
    83f8:	e12fff1e 	bx	lr
    83fc:	cccccccd 	stclgt	12, cr12, [ip], {205}	; 0xcd

00008400 <_ZNK13CGPIO_Handler18Get_GPCLR_LocationEjRjS0_>:
_ZNK13CGPIO_Handler18Get_GPCLR_LocationEjRjS0_():
/home/cf/ZCU/OS/practical/ex3/original/kernel/src/drivers/gpio.cpp:33

bool CGPIO_Handler::Get_GPCLR_Location(uint32_t pin, uint32_t& reg, uint32_t& bit_idx) const
{
    8400:	e52db004 	push	{fp}		; (str fp, [sp, #-4]!)
    8404:	e28db000 	add	fp, sp, #0
    8408:	e24dd014 	sub	sp, sp, #20
    840c:	e50b0008 	str	r0, [fp, #-8]
    8410:	e50b100c 	str	r1, [fp, #-12]
    8414:	e50b2010 	str	r2, [fp, #-16]
    8418:	e50b3014 	str	r3, [fp, #-20]	; 0xffffffec
/home/cf/ZCU/OS/practical/ex3/original/kernel/src/drivers/gpio.cpp:34
	if (pin > hal::GPIO_Pin_Count)
    841c:	e51b300c 	ldr	r3, [fp, #-12]
    8420:	e3530036 	cmp	r3, #54	; 0x36
    8424:	9a000001 	bls	8430 <_ZNK13CGPIO_Handler18Get_GPCLR_LocationEjRjS0_+0x30>
/home/cf/ZCU/OS/practical/ex3/original/kernel/src/drivers/gpio.cpp:35
		return false;
    8428:	e3a03000 	mov	r3, #0
    842c:	ea00000c 	b	8464 <_ZNK13CGPIO_Handler18Get_GPCLR_LocationEjRjS0_+0x64>
/home/cf/ZCU/OS/practical/ex3/original/kernel/src/drivers/gpio.cpp:37
	
	reg = static_cast<uint32_t>((pin < 32) ? hal::GPIO_Reg::GPCLR0 : hal::GPIO_Reg::GPCLR1);
    8430:	e51b300c 	ldr	r3, [fp, #-12]
    8434:	e353001f 	cmp	r3, #31
    8438:	8a000001 	bhi	8444 <_ZNK13CGPIO_Handler18Get_GPCLR_LocationEjRjS0_+0x44>
/home/cf/ZCU/OS/practical/ex3/original/kernel/src/drivers/gpio.cpp:37 (discriminator 1)
    843c:	e3a0200a 	mov	r2, #10
    8440:	ea000000 	b	8448 <_ZNK13CGPIO_Handler18Get_GPCLR_LocationEjRjS0_+0x48>
/home/cf/ZCU/OS/practical/ex3/original/kernel/src/drivers/gpio.cpp:37 (discriminator 2)
    8444:	e3a0200b 	mov	r2, #11
/home/cf/ZCU/OS/practical/ex3/original/kernel/src/drivers/gpio.cpp:37 (discriminator 4)
    8448:	e51b3010 	ldr	r3, [fp, #-16]
    844c:	e5832000 	str	r2, [r3]
/home/cf/ZCU/OS/practical/ex3/original/kernel/src/drivers/gpio.cpp:38 (discriminator 4)
	bit_idx = pin % 32;
    8450:	e51b300c 	ldr	r3, [fp, #-12]
    8454:	e203201f 	and	r2, r3, #31
    8458:	e51b3014 	ldr	r3, [fp, #-20]	; 0xffffffec
    845c:	e5832000 	str	r2, [r3]
/home/cf/ZCU/OS/practical/ex3/original/kernel/src/drivers/gpio.cpp:40 (discriminator 4)
	
	return true;
    8460:	e3a03001 	mov	r3, #1
/home/cf/ZCU/OS/practical/ex3/original/kernel/src/drivers/gpio.cpp:41
}
    8464:	e1a00003 	mov	r0, r3
    8468:	e28bd000 	add	sp, fp, #0
    846c:	e49db004 	pop	{fp}		; (ldr fp, [sp], #4)
    8470:	e12fff1e 	bx	lr

00008474 <_ZNK13CGPIO_Handler18Get_GPSET_LocationEjRjS0_>:
_ZNK13CGPIO_Handler18Get_GPSET_LocationEjRjS0_():
/home/cf/ZCU/OS/practical/ex3/original/kernel/src/drivers/gpio.cpp:44

bool CGPIO_Handler::Get_GPSET_Location(uint32_t pin, uint32_t& reg, uint32_t& bit_idx) const
{
    8474:	e52db004 	push	{fp}		; (str fp, [sp, #-4]!)
    8478:	e28db000 	add	fp, sp, #0
    847c:	e24dd014 	sub	sp, sp, #20
    8480:	e50b0008 	str	r0, [fp, #-8]
    8484:	e50b100c 	str	r1, [fp, #-12]
    8488:	e50b2010 	str	r2, [fp, #-16]
    848c:	e50b3014 	str	r3, [fp, #-20]	; 0xffffffec
/home/cf/ZCU/OS/practical/ex3/original/kernel/src/drivers/gpio.cpp:45
	if (pin > hal::GPIO_Pin_Count)
    8490:	e51b300c 	ldr	r3, [fp, #-12]
    8494:	e3530036 	cmp	r3, #54	; 0x36
    8498:	9a000001 	bls	84a4 <_ZNK13CGPIO_Handler18Get_GPSET_LocationEjRjS0_+0x30>
/home/cf/ZCU/OS/practical/ex3/original/kernel/src/drivers/gpio.cpp:46
		return false;
    849c:	e3a03000 	mov	r3, #0
    84a0:	ea00000c 	b	84d8 <_ZNK13CGPIO_Handler18Get_GPSET_LocationEjRjS0_+0x64>
/home/cf/ZCU/OS/practical/ex3/original/kernel/src/drivers/gpio.cpp:48
	
	reg = static_cast<uint32_t>((pin < 32) ? hal::GPIO_Reg::GPSET0 : hal::GPIO_Reg::GPSET1);
    84a4:	e51b300c 	ldr	r3, [fp, #-12]
    84a8:	e353001f 	cmp	r3, #31
    84ac:	8a000001 	bhi	84b8 <_ZNK13CGPIO_Handler18Get_GPSET_LocationEjRjS0_+0x44>
/home/cf/ZCU/OS/practical/ex3/original/kernel/src/drivers/gpio.cpp:48 (discriminator 1)
    84b0:	e3a02007 	mov	r2, #7
    84b4:	ea000000 	b	84bc <_ZNK13CGPIO_Handler18Get_GPSET_LocationEjRjS0_+0x48>
/home/cf/ZCU/OS/practical/ex3/original/kernel/src/drivers/gpio.cpp:48 (discriminator 2)
    84b8:	e3a02008 	mov	r2, #8
/home/cf/ZCU/OS/practical/ex3/original/kernel/src/drivers/gpio.cpp:48 (discriminator 4)
    84bc:	e51b3010 	ldr	r3, [fp, #-16]
    84c0:	e5832000 	str	r2, [r3]
/home/cf/ZCU/OS/practical/ex3/original/kernel/src/drivers/gpio.cpp:49 (discriminator 4)
	bit_idx = pin % 32;
    84c4:	e51b300c 	ldr	r3, [fp, #-12]
    84c8:	e203201f 	and	r2, r3, #31
    84cc:	e51b3014 	ldr	r3, [fp, #-20]	; 0xffffffec
    84d0:	e5832000 	str	r2, [r3]
/home/cf/ZCU/OS/practical/ex3/original/kernel/src/drivers/gpio.cpp:51 (discriminator 4)
	
	return true;
    84d4:	e3a03001 	mov	r3, #1
/home/cf/ZCU/OS/practical/ex3/original/kernel/src/drivers/gpio.cpp:52
}
    84d8:	e1a00003 	mov	r0, r3
    84dc:	e28bd000 	add	sp, fp, #0
    84e0:	e49db004 	pop	{fp}		; (ldr fp, [sp], #4)
    84e4:	e12fff1e 	bx	lr

000084e8 <_ZNK13CGPIO_Handler18Get_GPLEV_LocationEjRjS0_>:
_ZNK13CGPIO_Handler18Get_GPLEV_LocationEjRjS0_():
/home/cf/ZCU/OS/practical/ex3/original/kernel/src/drivers/gpio.cpp:55

bool CGPIO_Handler::Get_GPLEV_Location(uint32_t pin, uint32_t& reg, uint32_t& bit_idx) const
{
    84e8:	e52db004 	push	{fp}		; (str fp, [sp, #-4]!)
    84ec:	e28db000 	add	fp, sp, #0
    84f0:	e24dd014 	sub	sp, sp, #20
    84f4:	e50b0008 	str	r0, [fp, #-8]
    84f8:	e50b100c 	str	r1, [fp, #-12]
    84fc:	e50b2010 	str	r2, [fp, #-16]
    8500:	e50b3014 	str	r3, [fp, #-20]	; 0xffffffec
/home/cf/ZCU/OS/practical/ex3/original/kernel/src/drivers/gpio.cpp:56
	if (pin > hal::GPIO_Pin_Count)
    8504:	e51b300c 	ldr	r3, [fp, #-12]
    8508:	e3530036 	cmp	r3, #54	; 0x36
    850c:	9a000001 	bls	8518 <_ZNK13CGPIO_Handler18Get_GPLEV_LocationEjRjS0_+0x30>
/home/cf/ZCU/OS/practical/ex3/original/kernel/src/drivers/gpio.cpp:57
		return false;
    8510:	e3a03000 	mov	r3, #0
    8514:	ea00000c 	b	854c <_ZNK13CGPIO_Handler18Get_GPLEV_LocationEjRjS0_+0x64>
/home/cf/ZCU/OS/practical/ex3/original/kernel/src/drivers/gpio.cpp:59
	
	reg = static_cast<uint32_t>((pin < 32) ? hal::GPIO_Reg::GPLEV0 : hal::GPIO_Reg::GPLEV1);
    8518:	e51b300c 	ldr	r3, [fp, #-12]
    851c:	e353001f 	cmp	r3, #31
    8520:	8a000001 	bhi	852c <_ZNK13CGPIO_Handler18Get_GPLEV_LocationEjRjS0_+0x44>
/home/cf/ZCU/OS/practical/ex3/original/kernel/src/drivers/gpio.cpp:59 (discriminator 1)
    8524:	e3a0200d 	mov	r2, #13
    8528:	ea000000 	b	8530 <_ZNK13CGPIO_Handler18Get_GPLEV_LocationEjRjS0_+0x48>
/home/cf/ZCU/OS/practical/ex3/original/kernel/src/drivers/gpio.cpp:59 (discriminator 2)
    852c:	e3a0200e 	mov	r2, #14
/home/cf/ZCU/OS/practical/ex3/original/kernel/src/drivers/gpio.cpp:59 (discriminator 4)
    8530:	e51b3010 	ldr	r3, [fp, #-16]
    8534:	e5832000 	str	r2, [r3]
/home/cf/ZCU/OS/practical/ex3/original/kernel/src/drivers/gpio.cpp:60 (discriminator 4)
	bit_idx = pin % 32;
    8538:	e51b300c 	ldr	r3, [fp, #-12]
    853c:	e203201f 	and	r2, r3, #31
    8540:	e51b3014 	ldr	r3, [fp, #-20]	; 0xffffffec
    8544:	e5832000 	str	r2, [r3]
/home/cf/ZCU/OS/practical/ex3/original/kernel/src/drivers/gpio.cpp:62 (discriminator 4)
	
	return true;
    8548:	e3a03001 	mov	r3, #1
/home/cf/ZCU/OS/practical/ex3/original/kernel/src/drivers/gpio.cpp:63
}
    854c:	e1a00003 	mov	r0, r3
    8550:	e28bd000 	add	sp, fp, #0
    8554:	e49db004 	pop	{fp}		; (ldr fp, [sp], #4)
    8558:	e12fff1e 	bx	lr

0000855c <_ZN13CGPIO_Handler17Set_GPIO_FunctionEj14NGPIO_Function>:
_ZN13CGPIO_Handler17Set_GPIO_FunctionEj14NGPIO_Function():
/home/cf/ZCU/OS/practical/ex3/original/kernel/src/drivers/gpio.cpp:66
		
void CGPIO_Handler::Set_GPIO_Function(uint32_t pin, NGPIO_Function func)
{
    855c:	e92d4800 	push	{fp, lr}
    8560:	e28db004 	add	fp, sp, #4
    8564:	e24dd018 	sub	sp, sp, #24
    8568:	e50b0010 	str	r0, [fp, #-16]
    856c:	e50b1014 	str	r1, [fp, #-20]	; 0xffffffec
    8570:	e1a03002 	mov	r3, r2
    8574:	e54b3015 	strb	r3, [fp, #-21]	; 0xffffffeb
/home/cf/ZCU/OS/practical/ex3/original/kernel/src/drivers/gpio.cpp:68
	uint32_t reg, bit;
	if (Get_GPFSEL_Location(pin, reg, bit))
    8578:	e24b300c 	sub	r3, fp, #12
    857c:	e24b2008 	sub	r2, fp, #8
    8580:	e51b1014 	ldr	r1, [fp, #-20]	; 0xffffffec
    8584:	e51b0010 	ldr	r0, [fp, #-16]
    8588:	ebffff57 	bl	82ec <_ZNK13CGPIO_Handler19Get_GPFSEL_LocationEjRjS0_>
    858c:	e1a03000 	mov	r3, r0
    8590:	e3530000 	cmp	r3, #0
    8594:	1a000015 	bne	85f0 <_ZN13CGPIO_Handler17Set_GPIO_FunctionEj14NGPIO_Function+0x94>
/home/cf/ZCU/OS/practical/ex3/original/kernel/src/drivers/gpio.cpp:71
		return;
	
	mGPIO[reg] = (mGPIO[reg] & (~static_cast<unsigned int>(7 << bit)) )
    8598:	e51b3010 	ldr	r3, [fp, #-16]
    859c:	e5932000 	ldr	r2, [r3]
    85a0:	e51b3008 	ldr	r3, [fp, #-8]
    85a4:	e1a03103 	lsl	r3, r3, #2
    85a8:	e0823003 	add	r3, r2, r3
    85ac:	e5932000 	ldr	r2, [r3]
    85b0:	e51b300c 	ldr	r3, [fp, #-12]
    85b4:	e3a01007 	mov	r1, #7
    85b8:	e1a03311 	lsl	r3, r1, r3
    85bc:	e1e03003 	mvn	r3, r3
    85c0:	e0021003 	and	r1, r2, r3
/home/cf/ZCU/OS/practical/ex3/original/kernel/src/drivers/gpio.cpp:72
				| (static_cast<unsigned int>(func) << bit);
    85c4:	e55b2015 	ldrb	r2, [fp, #-21]	; 0xffffffeb
    85c8:	e51b300c 	ldr	r3, [fp, #-12]
    85cc:	e1a02312 	lsl	r2, r2, r3
/home/cf/ZCU/OS/practical/ex3/original/kernel/src/drivers/gpio.cpp:71
	mGPIO[reg] = (mGPIO[reg] & (~static_cast<unsigned int>(7 << bit)) )
    85d0:	e51b3010 	ldr	r3, [fp, #-16]
    85d4:	e5930000 	ldr	r0, [r3]
    85d8:	e51b3008 	ldr	r3, [fp, #-8]
    85dc:	e1a03103 	lsl	r3, r3, #2
    85e0:	e0803003 	add	r3, r0, r3
/home/cf/ZCU/OS/practical/ex3/original/kernel/src/drivers/gpio.cpp:72
				| (static_cast<unsigned int>(func) << bit);
    85e4:	e1812002 	orr	r2, r1, r2
/home/cf/ZCU/OS/practical/ex3/original/kernel/src/drivers/gpio.cpp:71
	mGPIO[reg] = (mGPIO[reg] & (~static_cast<unsigned int>(7 << bit)) )
    85e8:	e5832000 	str	r2, [r3]
    85ec:	ea000000 	b	85f4 <_ZN13CGPIO_Handler17Set_GPIO_FunctionEj14NGPIO_Function+0x98>
/home/cf/ZCU/OS/practical/ex3/original/kernel/src/drivers/gpio.cpp:69
		return;
    85f0:	e320f000 	nop	{0}
/home/cf/ZCU/OS/practical/ex3/original/kernel/src/drivers/gpio.cpp:73
}
    85f4:	e24bd004 	sub	sp, fp, #4
    85f8:	e8bd8800 	pop	{fp, pc}

000085fc <_ZNK13CGPIO_Handler17Get_GPIO_FunctionEj>:
_ZNK13CGPIO_Handler17Get_GPIO_FunctionEj():
/home/cf/ZCU/OS/practical/ex3/original/kernel/src/drivers/gpio.cpp:76

NGPIO_Function CGPIO_Handler::Get_GPIO_Function(uint32_t pin) const
{
    85fc:	e92d4800 	push	{fp, lr}
    8600:	e28db004 	add	fp, sp, #4
    8604:	e24dd010 	sub	sp, sp, #16
    8608:	e50b0010 	str	r0, [fp, #-16]
    860c:	e50b1014 	str	r1, [fp, #-20]	; 0xffffffec
/home/cf/ZCU/OS/practical/ex3/original/kernel/src/drivers/gpio.cpp:78
	uint32_t reg, bit;
	if (Get_GPFSEL_Location(pin, reg, bit))
    8610:	e24b300c 	sub	r3, fp, #12
    8614:	e24b2008 	sub	r2, fp, #8
    8618:	e51b1014 	ldr	r1, [fp, #-20]	; 0xffffffec
    861c:	e51b0010 	ldr	r0, [fp, #-16]
    8620:	ebffff31 	bl	82ec <_ZNK13CGPIO_Handler19Get_GPFSEL_LocationEjRjS0_>
    8624:	e1a03000 	mov	r3, r0
    8628:	e3530000 	cmp	r3, #0
    862c:	0a000001 	beq	8638 <_ZNK13CGPIO_Handler17Get_GPIO_FunctionEj+0x3c>
/home/cf/ZCU/OS/practical/ex3/original/kernel/src/drivers/gpio.cpp:79
		return NGPIO_Function::Unspecified;
    8630:	e3a03008 	mov	r3, #8
    8634:	ea00000a 	b	8664 <_ZNK13CGPIO_Handler17Get_GPIO_FunctionEj+0x68>
/home/cf/ZCU/OS/practical/ex3/original/kernel/src/drivers/gpio.cpp:81
	
	return static_cast<NGPIO_Function>((mGPIO[reg] >> bit) & 7);
    8638:	e51b3010 	ldr	r3, [fp, #-16]
    863c:	e5932000 	ldr	r2, [r3]
    8640:	e51b3008 	ldr	r3, [fp, #-8]
    8644:	e1a03103 	lsl	r3, r3, #2
    8648:	e0823003 	add	r3, r2, r3
    864c:	e5932000 	ldr	r2, [r3]
    8650:	e51b300c 	ldr	r3, [fp, #-12]
    8654:	e1a03332 	lsr	r3, r2, r3
    8658:	e6ef3073 	uxtb	r3, r3
    865c:	e2033007 	and	r3, r3, #7
    8660:	e6ef3073 	uxtb	r3, r3
/home/cf/ZCU/OS/practical/ex3/original/kernel/src/drivers/gpio.cpp:82 (discriminator 1)
}
    8664:	e1a00003 	mov	r0, r3
    8668:	e24bd004 	sub	sp, fp, #4
    866c:	e8bd8800 	pop	{fp, pc}

00008670 <_ZN13CGPIO_Handler10Set_OutputEjb>:
_ZN13CGPIO_Handler10Set_OutputEjb():
/home/cf/ZCU/OS/practical/ex3/original/kernel/src/drivers/gpio.cpp:85

void CGPIO_Handler::Set_Output(uint32_t pin, bool set)
{
    8670:	e92d4800 	push	{fp, lr}
    8674:	e28db004 	add	fp, sp, #4
    8678:	e24dd018 	sub	sp, sp, #24
    867c:	e50b0010 	str	r0, [fp, #-16]
    8680:	e50b1014 	str	r1, [fp, #-20]	; 0xffffffec
    8684:	e1a03002 	mov	r3, r2
    8688:	e54b3015 	strb	r3, [fp, #-21]	; 0xffffffeb
/home/cf/ZCU/OS/practical/ex3/original/kernel/src/drivers/gpio.cpp:87
	uint32_t reg, bit;
	if (!(set && Get_GPSET_Location(pin, reg, bit)) && !(!set && Get_GPCLR_Location(pin, reg, bit)))
    868c:	e55b3015 	ldrb	r3, [fp, #-21]	; 0xffffffeb
    8690:	e2233001 	eor	r3, r3, #1
    8694:	e6ef3073 	uxtb	r3, r3
    8698:	e3530000 	cmp	r3, #0
    869c:	1a000009 	bne	86c8 <_ZN13CGPIO_Handler10Set_OutputEjb+0x58>
/home/cf/ZCU/OS/practical/ex3/original/kernel/src/drivers/gpio.cpp:87 (discriminator 2)
    86a0:	e24b300c 	sub	r3, fp, #12
    86a4:	e24b2008 	sub	r2, fp, #8
    86a8:	e51b1014 	ldr	r1, [fp, #-20]	; 0xffffffec
    86ac:	e51b0010 	ldr	r0, [fp, #-16]
    86b0:	ebffff6f 	bl	8474 <_ZNK13CGPIO_Handler18Get_GPSET_LocationEjRjS0_>
    86b4:	e1a03000 	mov	r3, r0
    86b8:	e2233001 	eor	r3, r3, #1
    86bc:	e6ef3073 	uxtb	r3, r3
    86c0:	e3530000 	cmp	r3, #0
    86c4:	0a00000e 	beq	8704 <_ZN13CGPIO_Handler10Set_OutputEjb+0x94>
/home/cf/ZCU/OS/practical/ex3/original/kernel/src/drivers/gpio.cpp:87 (discriminator 3)
    86c8:	e55b3015 	ldrb	r3, [fp, #-21]	; 0xffffffeb
    86cc:	e3530000 	cmp	r3, #0
    86d0:	1a000009 	bne	86fc <_ZN13CGPIO_Handler10Set_OutputEjb+0x8c>
/home/cf/ZCU/OS/practical/ex3/original/kernel/src/drivers/gpio.cpp:87 (discriminator 6)
    86d4:	e24b300c 	sub	r3, fp, #12
    86d8:	e24b2008 	sub	r2, fp, #8
    86dc:	e51b1014 	ldr	r1, [fp, #-20]	; 0xffffffec
    86e0:	e51b0010 	ldr	r0, [fp, #-16]
    86e4:	ebffff45 	bl	8400 <_ZNK13CGPIO_Handler18Get_GPCLR_LocationEjRjS0_>
    86e8:	e1a03000 	mov	r3, r0
    86ec:	e2233001 	eor	r3, r3, #1
    86f0:	e6ef3073 	uxtb	r3, r3
    86f4:	e3530000 	cmp	r3, #0
    86f8:	0a000001 	beq	8704 <_ZN13CGPIO_Handler10Set_OutputEjb+0x94>
/home/cf/ZCU/OS/practical/ex3/original/kernel/src/drivers/gpio.cpp:87 (discriminator 7)
    86fc:	e3a03001 	mov	r3, #1
    8700:	ea000000 	b	8708 <_ZN13CGPIO_Handler10Set_OutputEjb+0x98>
/home/cf/ZCU/OS/practical/ex3/original/kernel/src/drivers/gpio.cpp:87 (discriminator 8)
    8704:	e3a03000 	mov	r3, #0
/home/cf/ZCU/OS/practical/ex3/original/kernel/src/drivers/gpio.cpp:87 (discriminator 10)
    8708:	e3530000 	cmp	r3, #0
    870c:	1a00000a 	bne	873c <_ZN13CGPIO_Handler10Set_OutputEjb+0xcc>
/home/cf/ZCU/OS/practical/ex3/original/kernel/src/drivers/gpio.cpp:90
		return;
	
	mGPIO[reg] = (1 << bit);
    8710:	e51b300c 	ldr	r3, [fp, #-12]
    8714:	e3a02001 	mov	r2, #1
    8718:	e1a01312 	lsl	r1, r2, r3
    871c:	e51b3010 	ldr	r3, [fp, #-16]
    8720:	e5932000 	ldr	r2, [r3]
    8724:	e51b3008 	ldr	r3, [fp, #-8]
    8728:	e1a03103 	lsl	r3, r3, #2
    872c:	e0823003 	add	r3, r2, r3
    8730:	e1a02001 	mov	r2, r1
    8734:	e5832000 	str	r2, [r3]
    8738:	ea000000 	b	8740 <_ZN13CGPIO_Handler10Set_OutputEjb+0xd0>
/home/cf/ZCU/OS/practical/ex3/original/kernel/src/drivers/gpio.cpp:88
		return;
    873c:	e320f000 	nop	{0}
/home/cf/ZCU/OS/practical/ex3/original/kernel/src/drivers/gpio.cpp:91
}
    8740:	e24bd004 	sub	sp, fp, #4
    8744:	e8bd8800 	pop	{fp, pc}

00008748 <_Z41__static_initialization_and_destruction_0ii>:
_Z41__static_initialization_and_destruction_0ii():
/home/cf/ZCU/OS/practical/ex3/original/kernel/src/drivers/gpio.cpp:91
    8748:	e92d4800 	push	{fp, lr}
    874c:	e28db004 	add	fp, sp, #4
    8750:	e24dd008 	sub	sp, sp, #8
    8754:	e50b0008 	str	r0, [fp, #-8]
    8758:	e50b100c 	str	r1, [fp, #-12]
    875c:	e51b3008 	ldr	r3, [fp, #-8]
    8760:	e3530001 	cmp	r3, #1
    8764:	1a000006 	bne	8784 <_Z41__static_initialization_and_destruction_0ii+0x3c>
/home/cf/ZCU/OS/practical/ex3/original/kernel/src/drivers/gpio.cpp:91 (discriminator 1)
    8768:	e51b300c 	ldr	r3, [fp, #-12]
    876c:	e59f201c 	ldr	r2, [pc, #28]	; 8790 <_Z41__static_initialization_and_destruction_0ii+0x48>
    8770:	e1530002 	cmp	r3, r2
    8774:	1a000002 	bne	8784 <_Z41__static_initialization_and_destruction_0ii+0x3c>
/home/cf/ZCU/OS/practical/ex3/original/kernel/src/drivers/gpio.cpp:4
CGPIO_Handler sGPIO(hal::GPIO_Base);
    8778:	e59f1014 	ldr	r1, [pc, #20]	; 8794 <_Z41__static_initialization_and_destruction_0ii+0x4c>
    877c:	e59f0014 	ldr	r0, [pc, #20]	; 8798 <_Z41__static_initialization_and_destruction_0ii+0x50>
    8780:	ebfffecc 	bl	82b8 <_ZN13CGPIO_HandlerC1Ej>
/home/cf/ZCU/OS/practical/ex3/original/kernel/src/drivers/gpio.cpp:91
}
    8784:	e320f000 	nop	{0}
    8788:	e24bd004 	sub	sp, fp, #4
    878c:	e8bd8800 	pop	{fp, pc}
    8790:	0000ffff 	strdeq	pc, [r0], -pc	; <UNPREDICTABLE>
    8794:	20200000 	eorcs	r0, r0, r0
    8798:	00008ff4 	strdeq	r8, [r0], -r4

0000879c <_GLOBAL__sub_I_sGPIO>:
_GLOBAL__sub_I_sGPIO():
/home/cf/ZCU/OS/practical/ex3/original/kernel/src/drivers/gpio.cpp:91
    879c:	e92d4800 	push	{fp, lr}
    87a0:	e28db004 	add	fp, sp, #4
    87a4:	e59f1008 	ldr	r1, [pc, #8]	; 87b4 <_GLOBAL__sub_I_sGPIO+0x18>
    87a8:	e3a00001 	mov	r0, #1
    87ac:	ebffffe5 	bl	8748 <_Z41__static_initialization_and_destruction_0ii>
    87b0:	e8bd8800 	pop	{fp, pc}
    87b4:	0000ffff 	strdeq	pc, [r0], -pc	; <UNPREDICTABLE>

000087b8 <_ZN5CUARTC1ER4CAUX>:
_ZN5CUARTC2ER4CAUX():
/home/cf/ZCU/OS/practical/ex3/original/kernel/src/drivers/uart.cpp:6
#include <drivers/uart.h>
#include <drivers/bcm_aux.h>

CUART sUART0(sAUX);

CUART::CUART(CAUX& aux)
    87b8:	e92d4800 	push	{fp, lr}
    87bc:	e28db004 	add	fp, sp, #4
    87c0:	e24dd008 	sub	sp, sp, #8
    87c4:	e50b0008 	str	r0, [fp, #-8]
    87c8:	e50b100c 	str	r1, [fp, #-12]
/home/cf/ZCU/OS/practical/ex3/original/kernel/src/drivers/uart.cpp:7
    : mAUX(aux)
    87cc:	e51b3008 	ldr	r3, [fp, #-8]
    87d0:	e51b200c 	ldr	r2, [fp, #-12]
    87d4:	e5832000 	str	r2, [r3]
/home/cf/ZCU/OS/practical/ex3/original/kernel/src/drivers/uart.cpp:9
{
    mAUX.Enable(hal::AUX_Peripherals::MiniUART);
    87d8:	e51b3008 	ldr	r3, [fp, #-8]
    87dc:	e5933000 	ldr	r3, [r3]
    87e0:	e3a01000 	mov	r1, #0
    87e4:	e1a00003 	mov	r0, r3
    87e8:	ebfffe4d 	bl	8124 <_ZN4CAUX6EnableEN3hal15AUX_PeripheralsE>
/home/cf/ZCU/OS/practical/ex3/original/kernel/src/drivers/uart.cpp:11
    //mAUX.Set_Register(hal::AUX_Reg::ENABLES, mAUX.Get_Register(hal::AUX_Reg::ENABLES) | 0x01);
    mAUX.Set_Register(hal::AUX_Reg::MU_IIR, 0);
    87ec:	e51b3008 	ldr	r3, [fp, #-8]
    87f0:	e5933000 	ldr	r3, [r3]
    87f4:	e3a02000 	mov	r2, #0
    87f8:	e3a01012 	mov	r1, #18
    87fc:	e1a00003 	mov	r0, r3
    8800:	ebfffe70 	bl	81c8 <_ZN4CAUX12Set_RegisterEN3hal7AUX_RegEj>
/home/cf/ZCU/OS/practical/ex3/original/kernel/src/drivers/uart.cpp:12
    mAUX.Set_Register(hal::AUX_Reg::MU_IER, 0);
    8804:	e51b3008 	ldr	r3, [fp, #-8]
    8808:	e5933000 	ldr	r3, [r3]
    880c:	e3a02000 	mov	r2, #0
    8810:	e3a01011 	mov	r1, #17
    8814:	e1a00003 	mov	r0, r3
    8818:	ebfffe6a 	bl	81c8 <_ZN4CAUX12Set_RegisterEN3hal7AUX_RegEj>
/home/cf/ZCU/OS/practical/ex3/original/kernel/src/drivers/uart.cpp:13
    mAUX.Set_Register(hal::AUX_Reg::MU_MCR, 0);
    881c:	e51b3008 	ldr	r3, [fp, #-8]
    8820:	e5933000 	ldr	r3, [r3]
    8824:	e3a02000 	mov	r2, #0
    8828:	e3a01014 	mov	r1, #20
    882c:	e1a00003 	mov	r0, r3
    8830:	ebfffe64 	bl	81c8 <_ZN4CAUX12Set_RegisterEN3hal7AUX_RegEj>
/home/cf/ZCU/OS/practical/ex3/original/kernel/src/drivers/uart.cpp:14
    mAUX.Set_Register(hal::AUX_Reg::MU_CNTL, 3); // RX and TX enabled
    8834:	e51b3008 	ldr	r3, [fp, #-8]
    8838:	e5933000 	ldr	r3, [r3]
    883c:	e3a02003 	mov	r2, #3
    8840:	e3a01018 	mov	r1, #24
    8844:	e1a00003 	mov	r0, r3
    8848:	ebfffe5e 	bl	81c8 <_ZN4CAUX12Set_RegisterEN3hal7AUX_RegEj>
/home/cf/ZCU/OS/practical/ex3/original/kernel/src/drivers/uart.cpp:15
}
    884c:	e51b3008 	ldr	r3, [fp, #-8]
    8850:	e1a00003 	mov	r0, r3
    8854:	e24bd004 	sub	sp, fp, #4
    8858:	e8bd8800 	pop	{fp, pc}

0000885c <_ZN5CUART15Set_Char_LengthE17NUART_Char_Length>:
_ZN5CUART15Set_Char_LengthE17NUART_Char_Length():
/home/cf/ZCU/OS/practical/ex3/original/kernel/src/drivers/uart.cpp:18

void CUART::Set_Char_Length(NUART_Char_Length len)
{
    885c:	e92d4810 	push	{r4, fp, lr}
    8860:	e28db008 	add	fp, sp, #8
    8864:	e24dd00c 	sub	sp, sp, #12
    8868:	e50b0010 	str	r0, [fp, #-16]
    886c:	e50b1014 	str	r1, [fp, #-20]	; 0xffffffec
/home/cf/ZCU/OS/practical/ex3/original/kernel/src/drivers/uart.cpp:19
    mAUX.Set_Register(hal::AUX_Reg::MU_LCR, (mAUX.Get_Register(hal::AUX_Reg::MU_LCR) & 0xFFFFFFFE) | static_cast<unsigned int>(len));
    8870:	e51b3010 	ldr	r3, [fp, #-16]
    8874:	e5934000 	ldr	r4, [r3]
    8878:	e51b3010 	ldr	r3, [fp, #-16]
    887c:	e5933000 	ldr	r3, [r3]
    8880:	e3a01013 	mov	r1, #19
    8884:	e1a00003 	mov	r0, r3
    8888:	ebfffe5f 	bl	820c <_ZN4CAUX12Get_RegisterEN3hal7AUX_RegE>
    888c:	e1a03000 	mov	r3, r0
    8890:	e3c32001 	bic	r2, r3, #1
    8894:	e51b3014 	ldr	r3, [fp, #-20]	; 0xffffffec
    8898:	e1823003 	orr	r3, r2, r3
    889c:	e1a02003 	mov	r2, r3
    88a0:	e3a01013 	mov	r1, #19
    88a4:	e1a00004 	mov	r0, r4
    88a8:	ebfffe46 	bl	81c8 <_ZN4CAUX12Set_RegisterEN3hal7AUX_RegEj>
/home/cf/ZCU/OS/practical/ex3/original/kernel/src/drivers/uart.cpp:20
}
    88ac:	e320f000 	nop	{0}
    88b0:	e24bd008 	sub	sp, fp, #8
    88b4:	e8bd8810 	pop	{r4, fp, pc}

000088b8 <_ZN5CUART13Set_Baud_RateE15NUART_Baud_Rate>:
_ZN5CUART13Set_Baud_RateE15NUART_Baud_Rate():
/home/cf/ZCU/OS/practical/ex3/original/kernel/src/drivers/uart.cpp:23

void CUART::Set_Baud_Rate(NUART_Baud_Rate rate)
{
    88b8:	e92d4800 	push	{fp, lr}
    88bc:	e28db004 	add	fp, sp, #4
    88c0:	e24dd010 	sub	sp, sp, #16
    88c4:	e50b0010 	str	r0, [fp, #-16]
    88c8:	e50b1014 	str	r1, [fp, #-20]	; 0xffffffec
/home/cf/ZCU/OS/practical/ex3/original/kernel/src/drivers/uart.cpp:24
    constexpr unsigned int Clock_Rate = 250000000; // taktovaci frekvence hlavniho jadra
    88cc:	e59f3070 	ldr	r3, [pc, #112]	; 8944 <_ZN5CUART13Set_Baud_RateE15NUART_Baud_Rate+0x8c>
    88d0:	e50b3008 	str	r3, [fp, #-8]
/home/cf/ZCU/OS/practical/ex3/original/kernel/src/drivers/uart.cpp:25
    const unsigned int val = ((Clock_Rate / static_cast<unsigned int>(rate)) / 8) - 1;
    88d4:	e51b3014 	ldr	r3, [fp, #-20]	; 0xffffffec
    88d8:	e1a01003 	mov	r1, r3
    88dc:	e59f0064 	ldr	r0, [pc, #100]	; 8948 <_ZN5CUART13Set_Baud_RateE15NUART_Baud_Rate+0x90>
    88e0:	eb0000f1 	bl	8cac <__udivsi3>
    88e4:	e1a03000 	mov	r3, r0
    88e8:	e2433001 	sub	r3, r3, #1
    88ec:	e50b300c 	str	r3, [fp, #-12]
/home/cf/ZCU/OS/practical/ex3/original/kernel/src/drivers/uart.cpp:27

    mAUX.Set_Register(hal::AUX_Reg::MU_CNTL, 0);
    88f0:	e51b3010 	ldr	r3, [fp, #-16]
    88f4:	e5933000 	ldr	r3, [r3]
    88f8:	e3a02000 	mov	r2, #0
    88fc:	e3a01018 	mov	r1, #24
    8900:	e1a00003 	mov	r0, r3
    8904:	ebfffe2f 	bl	81c8 <_ZN4CAUX12Set_RegisterEN3hal7AUX_RegEj>
/home/cf/ZCU/OS/practical/ex3/original/kernel/src/drivers/uart.cpp:29

    mAUX.Set_Register(hal::AUX_Reg::MU_BAUD, val);
    8908:	e51b3010 	ldr	r3, [fp, #-16]
    890c:	e5933000 	ldr	r3, [r3]
    8910:	e51b200c 	ldr	r2, [fp, #-12]
    8914:	e3a0101a 	mov	r1, #26
    8918:	e1a00003 	mov	r0, r3
    891c:	ebfffe29 	bl	81c8 <_ZN4CAUX12Set_RegisterEN3hal7AUX_RegEj>
/home/cf/ZCU/OS/practical/ex3/original/kernel/src/drivers/uart.cpp:31

    mAUX.Set_Register(hal::AUX_Reg::MU_CNTL, 3);
    8920:	e51b3010 	ldr	r3, [fp, #-16]
    8924:	e5933000 	ldr	r3, [r3]
    8928:	e3a02003 	mov	r2, #3
    892c:	e3a01018 	mov	r1, #24
    8930:	e1a00003 	mov	r0, r3
    8934:	ebfffe23 	bl	81c8 <_ZN4CAUX12Set_RegisterEN3hal7AUX_RegEj>
/home/cf/ZCU/OS/practical/ex3/original/kernel/src/drivers/uart.cpp:32
}
    8938:	e320f000 	nop	{0}
    893c:	e24bd004 	sub	sp, fp, #4
    8940:	e8bd8800 	pop	{fp, pc}
    8944:	0ee6b280 	cdpeq	2, 14, cr11, cr6, cr0, {4}
    8948:	01dcd650 	bicseq	sp, ip, r0, asr r6

0000894c <_ZN5CUART5WriteEc>:
_ZN5CUART5WriteEc():
/home/cf/ZCU/OS/practical/ex3/original/kernel/src/drivers/uart.cpp:35

void CUART::Write(char c)
{
    894c:	e92d4800 	push	{fp, lr}
    8950:	e28db004 	add	fp, sp, #4
    8954:	e24dd008 	sub	sp, sp, #8
    8958:	e50b0008 	str	r0, [fp, #-8]
    895c:	e1a03001 	mov	r3, r1
    8960:	e54b3009 	strb	r3, [fp, #-9]
/home/cf/ZCU/OS/practical/ex3/original/kernel/src/drivers/uart.cpp:37
    // dokud ma status registr priznak "vystupni fronta plna", nelze prenaset dalsi bit
    while (!(mAUX.Get_Register(hal::AUX_Reg::MU_LSR) & (1 << 5)))
    8964:	e320f000 	nop	{0}
/home/cf/ZCU/OS/practical/ex3/original/kernel/src/drivers/uart.cpp:37 (discriminator 1)
    8968:	e51b3008 	ldr	r3, [fp, #-8]
    896c:	e5933000 	ldr	r3, [r3]
    8970:	e3a01015 	mov	r1, #21
    8974:	e1a00003 	mov	r0, r3
    8978:	ebfffe23 	bl	820c <_ZN4CAUX12Get_RegisterEN3hal7AUX_RegE>
    897c:	e1a03000 	mov	r3, r0
    8980:	e2033020 	and	r3, r3, #32
    8984:	e3530000 	cmp	r3, #0
    8988:	03a03001 	moveq	r3, #1
    898c:	13a03000 	movne	r3, #0
    8990:	e6ef3073 	uxtb	r3, r3
    8994:	e3530000 	cmp	r3, #0
    8998:	1afffff2 	bne	8968 <_ZN5CUART5WriteEc+0x1c>
/home/cf/ZCU/OS/practical/ex3/original/kernel/src/drivers/uart.cpp:40
        ;

    mAUX.Set_Register(hal::AUX_Reg::MU_IO, c);
    899c:	e51b3008 	ldr	r3, [fp, #-8]
    89a0:	e5933000 	ldr	r3, [r3]
    89a4:	e55b2009 	ldrb	r2, [fp, #-9]
    89a8:	e3a01010 	mov	r1, #16
    89ac:	e1a00003 	mov	r0, r3
    89b0:	ebfffe04 	bl	81c8 <_ZN4CAUX12Set_RegisterEN3hal7AUX_RegEj>
/home/cf/ZCU/OS/practical/ex3/original/kernel/src/drivers/uart.cpp:41
}
    89b4:	e320f000 	nop	{0}
    89b8:	e24bd004 	sub	sp, fp, #4
    89bc:	e8bd8800 	pop	{fp, pc}

000089c0 <_ZN5CUART5WriteEPKc>:
_ZN5CUART5WriteEPKc():
/home/cf/ZCU/OS/practical/ex3/original/kernel/src/drivers/uart.cpp:44

void CUART::Write(const char* str)
{
    89c0:	e92d4800 	push	{fp, lr}
    89c4:	e28db004 	add	fp, sp, #4
    89c8:	e24dd010 	sub	sp, sp, #16
    89cc:	e50b0010 	str	r0, [fp, #-16]
    89d0:	e50b1014 	str	r1, [fp, #-20]	; 0xffffffec
/home/cf/ZCU/OS/practical/ex3/original/kernel/src/drivers/uart.cpp:47
    int i;

    for (i = 0; str[i] != '\0'; i++)
    89d4:	e3a03000 	mov	r3, #0
    89d8:	e50b3008 	str	r3, [fp, #-8]
    89dc:	ea000009 	b	8a08 <_ZN5CUART5WriteEPKc+0x48>
/home/cf/ZCU/OS/practical/ex3/original/kernel/src/drivers/uart.cpp:48 (discriminator 3)
        Write(str[i]);
    89e0:	e51b3008 	ldr	r3, [fp, #-8]
    89e4:	e51b2014 	ldr	r2, [fp, #-20]	; 0xffffffec
    89e8:	e0823003 	add	r3, r2, r3
    89ec:	e5d33000 	ldrb	r3, [r3]
    89f0:	e1a01003 	mov	r1, r3
    89f4:	e51b0010 	ldr	r0, [fp, #-16]
    89f8:	ebffffd3 	bl	894c <_ZN5CUART5WriteEc>
/home/cf/ZCU/OS/practical/ex3/original/kernel/src/drivers/uart.cpp:47 (discriminator 3)
    for (i = 0; str[i] != '\0'; i++)
    89fc:	e51b3008 	ldr	r3, [fp, #-8]
    8a00:	e2833001 	add	r3, r3, #1
    8a04:	e50b3008 	str	r3, [fp, #-8]
/home/cf/ZCU/OS/practical/ex3/original/kernel/src/drivers/uart.cpp:47 (discriminator 1)
    8a08:	e51b3008 	ldr	r3, [fp, #-8]
    8a0c:	e51b2014 	ldr	r2, [fp, #-20]	; 0xffffffec
    8a10:	e0823003 	add	r3, r2, r3
    8a14:	e5d33000 	ldrb	r3, [r3]
    8a18:	e3530000 	cmp	r3, #0
    8a1c:	1affffef 	bne	89e0 <_ZN5CUART5WriteEPKc+0x20>
/home/cf/ZCU/OS/practical/ex3/original/kernel/src/drivers/uart.cpp:49
    8a20:	e320f000 	nop	{0}
    8a24:	e320f000 	nop	{0}
    8a28:	e24bd004 	sub	sp, fp, #4
    8a2c:	e8bd8800 	pop	{fp, pc}

00008a30 <_Z41__static_initialization_and_destruction_0ii>:
_Z41__static_initialization_and_destruction_0ii():
/home/cf/ZCU/OS/practical/ex3/original/kernel/src/drivers/uart.cpp:49
    8a30:	e92d4800 	push	{fp, lr}
    8a34:	e28db004 	add	fp, sp, #4
    8a38:	e24dd008 	sub	sp, sp, #8
    8a3c:	e50b0008 	str	r0, [fp, #-8]
    8a40:	e50b100c 	str	r1, [fp, #-12]
    8a44:	e51b3008 	ldr	r3, [fp, #-8]
    8a48:	e3530001 	cmp	r3, #1
    8a4c:	1a000006 	bne	8a6c <_Z41__static_initialization_and_destruction_0ii+0x3c>
/home/cf/ZCU/OS/practical/ex3/original/kernel/src/drivers/uart.cpp:49 (discriminator 1)
    8a50:	e51b300c 	ldr	r3, [fp, #-12]
    8a54:	e59f201c 	ldr	r2, [pc, #28]	; 8a78 <_Z41__static_initialization_and_destruction_0ii+0x48>
    8a58:	e1530002 	cmp	r3, r2
    8a5c:	1a000002 	bne	8a6c <_Z41__static_initialization_and_destruction_0ii+0x3c>
/home/cf/ZCU/OS/practical/ex3/original/kernel/src/drivers/uart.cpp:4
CUART sUART0(sAUX);
    8a60:	e59f1014 	ldr	r1, [pc, #20]	; 8a7c <_Z41__static_initialization_and_destruction_0ii+0x4c>
    8a64:	e59f0014 	ldr	r0, [pc, #20]	; 8a80 <_Z41__static_initialization_and_destruction_0ii+0x50>
    8a68:	ebffff52 	bl	87b8 <_ZN5CUARTC1ER4CAUX>
/home/cf/ZCU/OS/practical/ex3/original/kernel/src/drivers/uart.cpp:49
    8a6c:	e320f000 	nop	{0}
    8a70:	e24bd004 	sub	sp, fp, #4
    8a74:	e8bd8800 	pop	{fp, pc}
    8a78:	0000ffff 	strdeq	pc, [r0], -pc	; <UNPREDICTABLE>
    8a7c:	00008ff0 	strdeq	r8, [r0], -r0
    8a80:	00008ff8 	strdeq	r8, [r0], -r8	; <UNPREDICTABLE>

00008a84 <_GLOBAL__sub_I_sUART0>:
_GLOBAL__sub_I_sUART0():
/home/cf/ZCU/OS/practical/ex3/original/kernel/src/drivers/uart.cpp:49
    8a84:	e92d4800 	push	{fp, lr}
    8a88:	e28db004 	add	fp, sp, #4
    8a8c:	e59f1008 	ldr	r1, [pc, #8]	; 8a9c <_GLOBAL__sub_I_sUART0+0x18>
    8a90:	e3a00001 	mov	r0, #1
    8a94:	ebffffe5 	bl	8a30 <_Z41__static_initialization_and_destruction_0ii>
    8a98:	e8bd8800 	pop	{fp, pc}
    8a9c:	0000ffff 	strdeq	pc, [r0], -pc	; <UNPREDICTABLE>

00008aa0 <_kernel_main>:
_kernel_main():
/home/cf/ZCU/OS/practical/ex3/original/kernel/src/main.cpp:8

// GPIO pin 47 je pripojeny na LED na desce (tzv. ACT LED)
constexpr uint32_t ACT_Pin = 47;

extern "C" int _kernel_main(void)
{
    8aa0:	e92d4800 	push	{fp, lr}
    8aa4:	e28db004 	add	fp, sp, #4
    8aa8:	e24dd008 	sub	sp, sp, #8
/home/cf/ZCU/OS/practical/ex3/original/kernel/src/main.cpp:10
	// nastavime ACT LED pin na vystupni
	sGPIO.Set_GPIO_Function(ACT_Pin, NGPIO_Function::Output);
    8aac:	e3a02001 	mov	r2, #1
    8ab0:	e3a0102f 	mov	r1, #47	; 0x2f
    8ab4:	e59f00c4 	ldr	r0, [pc, #196]	; 8b80 <_kernel_main+0xe0>
    8ab8:	ebfffea7 	bl	855c <_ZN13CGPIO_Handler17Set_GPIO_FunctionEj14NGPIO_Function>
/home/cf/ZCU/OS/practical/ex3/original/kernel/src/main.cpp:13

	// inicializujeme UART kanal 0
	sUART0.Set_Baud_Rate(NUART_Baud_Rate::BR_115200);
    8abc:	e59f10c0 	ldr	r1, [pc, #192]	; 8b84 <_kernel_main+0xe4>
    8ac0:	e59f00c0 	ldr	r0, [pc, #192]	; 8b88 <_kernel_main+0xe8>
    8ac4:	ebffff7b 	bl	88b8 <_ZN5CUART13Set_Baud_RateE15NUART_Baud_Rate>
/home/cf/ZCU/OS/practical/ex3/original/kernel/src/main.cpp:14
	sUART0.Set_Char_Length(NUART_Char_Length::Char_8);
    8ac8:	e3a01001 	mov	r1, #1
    8acc:	e59f00b4 	ldr	r0, [pc, #180]	; 8b88 <_kernel_main+0xe8>
    8ad0:	ebffff61 	bl	885c <_ZN5CUART15Set_Char_LengthE17NUART_Char_Length>
/home/cf/ZCU/OS/practical/ex3/original/kernel/src/main.cpp:17

	// vypiseme ladici hlasku
	sUART0.Write("Welcome to KIV/OS RPiOS kernel\r\n");
    8ad4:	e59f10b0 	ldr	r1, [pc, #176]	; 8b8c <_kernel_main+0xec>
    8ad8:	e59f00a8 	ldr	r0, [pc, #168]	; 8b88 <_kernel_main+0xe8>
    8adc:	ebffffb7 	bl	89c0 <_ZN5CUART5WriteEPKc>
/home/cf/ZCU/OS/practical/ex3/original/kernel/src/main.cpp:24
	volatile unsigned int tim;
	
    while (1)
    {
		// spalime 500000 taktu (cekani par milisekund)
        for(tim = 0; tim < 500000; tim++)
    8ae0:	e3a03000 	mov	r3, #0
    8ae4:	e50b3008 	str	r3, [fp, #-8]
    8ae8:	ea000002 	b	8af8 <_kernel_main+0x58>
/home/cf/ZCU/OS/practical/ex3/original/kernel/src/main.cpp:24 (discriminator 3)
    8aec:	e51b3008 	ldr	r3, [fp, #-8]
    8af0:	e2833001 	add	r3, r3, #1
    8af4:	e50b3008 	str	r3, [fp, #-8]
/home/cf/ZCU/OS/practical/ex3/original/kernel/src/main.cpp:24 (discriminator 1)
    8af8:	e51b3008 	ldr	r3, [fp, #-8]
    8afc:	e59f208c 	ldr	r2, [pc, #140]	; 8b90 <_kernel_main+0xf0>
    8b00:	e1530002 	cmp	r3, r2
    8b04:	33a03001 	movcc	r3, #1
    8b08:	23a03000 	movcs	r3, #0
    8b0c:	e6ef3073 	uxtb	r3, r3
    8b10:	e3530000 	cmp	r3, #0
    8b14:	1afffff4 	bne	8aec <_kernel_main+0x4c>
/home/cf/ZCU/OS/practical/ex3/original/kernel/src/main.cpp:28
            ;
		
		// zhasneme LED
		sGPIO.Set_Output(ACT_Pin, true);
    8b18:	e3a02001 	mov	r2, #1
    8b1c:	e3a0102f 	mov	r1, #47	; 0x2f
    8b20:	e59f0058 	ldr	r0, [pc, #88]	; 8b80 <_kernel_main+0xe0>
    8b24:	ebfffed1 	bl	8670 <_ZN13CGPIO_Handler10Set_OutputEjb>
/home/cf/ZCU/OS/practical/ex3/original/kernel/src/main.cpp:31

		// vypis neceho na UART
		sUART0.Write('A');
    8b28:	e3a01041 	mov	r1, #65	; 0x41
    8b2c:	e59f0054 	ldr	r0, [pc, #84]	; 8b88 <_kernel_main+0xe8>
    8b30:	ebffff85 	bl	894c <_ZN5CUART5WriteEc>
/home/cf/ZCU/OS/practical/ex3/original/kernel/src/main.cpp:34

		// opet cekani
        for(tim = 0; tim < 500000; tim++)
    8b34:	e3a03000 	mov	r3, #0
    8b38:	e50b3008 	str	r3, [fp, #-8]
    8b3c:	ea000002 	b	8b4c <_kernel_main+0xac>
/home/cf/ZCU/OS/practical/ex3/original/kernel/src/main.cpp:34 (discriminator 3)
    8b40:	e51b3008 	ldr	r3, [fp, #-8]
    8b44:	e2833001 	add	r3, r3, #1
    8b48:	e50b3008 	str	r3, [fp, #-8]
/home/cf/ZCU/OS/practical/ex3/original/kernel/src/main.cpp:34 (discriminator 1)
    8b4c:	e51b3008 	ldr	r3, [fp, #-8]
    8b50:	e59f2038 	ldr	r2, [pc, #56]	; 8b90 <_kernel_main+0xf0>
    8b54:	e1530002 	cmp	r3, r2
    8b58:	33a03001 	movcc	r3, #1
    8b5c:	23a03000 	movcs	r3, #0
    8b60:	e6ef3073 	uxtb	r3, r3
    8b64:	e3530000 	cmp	r3, #0
    8b68:	1afffff4 	bne	8b40 <_kernel_main+0xa0>
/home/cf/ZCU/OS/practical/ex3/original/kernel/src/main.cpp:38
            ;

		// rozsvitime LED
		sGPIO.Set_Output(ACT_Pin, false);
    8b6c:	e3a02000 	mov	r2, #0
    8b70:	e3a0102f 	mov	r1, #47	; 0x2f
    8b74:	e59f0004 	ldr	r0, [pc, #4]	; 8b80 <_kernel_main+0xe0>
    8b78:	ebfffebc 	bl	8670 <_ZN13CGPIO_Handler10Set_OutputEjb>
/home/cf/ZCU/OS/practical/ex3/original/kernel/src/main.cpp:24
        for(tim = 0; tim < 500000; tim++)
    8b7c:	eaffffd7 	b	8ae0 <_kernel_main+0x40>
    8b80:	00008ff4 	strdeq	r8, [r0], -r4
    8b84:	0001c200 	andeq	ip, r1, r0, lsl #4
    8b88:	00008ff8 	strdeq	r8, [r0], -r8	; <UNPREDICTABLE>
    8b8c:	00008fc0 	andeq	r8, r0, r0, asr #31
    8b90:	0007a120 	andeq	sl, r7, r0, lsr #2

00008b94 <_c_startup>:
_c_startup():
/home/cf/ZCU/OS/practical/ex3/original/kernel/src/startup.cpp:21
extern "C" dtor_ptr __DTOR_LIST__[0];
// konec pole destruktoru
extern "C" dtor_ptr __DTOR_END__[0];

extern "C" int _c_startup(void)
{
    8b94:	e52db004 	push	{fp}		; (str fp, [sp, #-4]!)
    8b98:	e28db000 	add	fp, sp, #0
    8b9c:	e24dd00c 	sub	sp, sp, #12
/home/cf/ZCU/OS/practical/ex3/original/kernel/src/startup.cpp:25
	int* i;
	
	// vynulujeme .bss sekci
	for (i = (int*)_bss_start; i < (int*)_bss_end; i++)
    8ba0:	e59f304c 	ldr	r3, [pc, #76]	; 8bf4 <_c_startup+0x60>
    8ba4:	e5933000 	ldr	r3, [r3]
    8ba8:	e50b3008 	str	r3, [fp, #-8]
    8bac:	ea000005 	b	8bc8 <_c_startup+0x34>
/home/cf/ZCU/OS/practical/ex3/original/kernel/src/startup.cpp:26 (discriminator 3)
		*i = 0;
    8bb0:	e51b3008 	ldr	r3, [fp, #-8]
    8bb4:	e3a02000 	mov	r2, #0
    8bb8:	e5832000 	str	r2, [r3]
/home/cf/ZCU/OS/practical/ex3/original/kernel/src/startup.cpp:25 (discriminator 3)
	for (i = (int*)_bss_start; i < (int*)_bss_end; i++)
    8bbc:	e51b3008 	ldr	r3, [fp, #-8]
    8bc0:	e2833004 	add	r3, r3, #4
    8bc4:	e50b3008 	str	r3, [fp, #-8]
/home/cf/ZCU/OS/practical/ex3/original/kernel/src/startup.cpp:25 (discriminator 1)
    8bc8:	e59f3028 	ldr	r3, [pc, #40]	; 8bf8 <_c_startup+0x64>
    8bcc:	e5933000 	ldr	r3, [r3]
    8bd0:	e1a02003 	mov	r2, r3
    8bd4:	e51b3008 	ldr	r3, [fp, #-8]
    8bd8:	e1530002 	cmp	r3, r2
    8bdc:	3afffff3 	bcc	8bb0 <_c_startup+0x1c>
/home/cf/ZCU/OS/practical/ex3/original/kernel/src/startup.cpp:28
	
	return 0;
    8be0:	e3a03000 	mov	r3, #0
/home/cf/ZCU/OS/practical/ex3/original/kernel/src/startup.cpp:29
}
    8be4:	e1a00003 	mov	r0, r3
    8be8:	e28bd000 	add	sp, fp, #0
    8bec:	e49db004 	pop	{fp}		; (ldr fp, [sp], #4)
    8bf0:	e12fff1e 	bx	lr
    8bf4:	00008ff0 	strdeq	r8, [r0], -r0
    8bf8:	0000900c 	andeq	r9, r0, ip

00008bfc <_cpp_startup>:
_cpp_startup():
/home/cf/ZCU/OS/practical/ex3/original/kernel/src/startup.cpp:32

extern "C" int _cpp_startup(void)
{
    8bfc:	e92d4800 	push	{fp, lr}
    8c00:	e28db004 	add	fp, sp, #4
    8c04:	e24dd008 	sub	sp, sp, #8
/home/cf/ZCU/OS/practical/ex3/original/kernel/src/startup.cpp:37
	ctor_ptr* fnptr;
	
	// zavolame konstruktory globalnich C++ trid
	// v poli __CTOR_LIST__ jsou ukazatele na vygenerovane stuby volani konstruktoru
	for (fnptr = __CTOR_LIST__; fnptr < __CTOR_END__; fnptr++)
    8c08:	e59f303c 	ldr	r3, [pc, #60]	; 8c4c <_cpp_startup+0x50>
    8c0c:	e50b3008 	str	r3, [fp, #-8]
    8c10:	ea000005 	b	8c2c <_cpp_startup+0x30>
/home/cf/ZCU/OS/practical/ex3/original/kernel/src/startup.cpp:38 (discriminator 3)
		(*fnptr)();
    8c14:	e51b3008 	ldr	r3, [fp, #-8]
    8c18:	e5933000 	ldr	r3, [r3]
    8c1c:	e12fff33 	blx	r3
/home/cf/ZCU/OS/practical/ex3/original/kernel/src/startup.cpp:37 (discriminator 3)
	for (fnptr = __CTOR_LIST__; fnptr < __CTOR_END__; fnptr++)
    8c20:	e51b3008 	ldr	r3, [fp, #-8]
    8c24:	e2833004 	add	r3, r3, #4
    8c28:	e50b3008 	str	r3, [fp, #-8]
/home/cf/ZCU/OS/practical/ex3/original/kernel/src/startup.cpp:37 (discriminator 1)
    8c2c:	e51b3008 	ldr	r3, [fp, #-8]
    8c30:	e59f2018 	ldr	r2, [pc, #24]	; 8c50 <_cpp_startup+0x54>
    8c34:	e1530002 	cmp	r3, r2
    8c38:	3afffff5 	bcc	8c14 <_cpp_startup+0x18>
/home/cf/ZCU/OS/practical/ex3/original/kernel/src/startup.cpp:40
	
	return 0;
    8c3c:	e3a03000 	mov	r3, #0
/home/cf/ZCU/OS/practical/ex3/original/kernel/src/startup.cpp:41
}
    8c40:	e1a00003 	mov	r0, r3
    8c44:	e24bd004 	sub	sp, fp, #4
    8c48:	e8bd8800 	pop	{fp, pc}
    8c4c:	00008fe4 	andeq	r8, r0, r4, ror #31
    8c50:	00008ff0 	strdeq	r8, [r0], -r0

00008c54 <_cpp_shutdown>:
_cpp_shutdown():
/home/cf/ZCU/OS/practical/ex3/original/kernel/src/startup.cpp:44

extern "C" int _cpp_shutdown(void)
{
    8c54:	e92d4800 	push	{fp, lr}
    8c58:	e28db004 	add	fp, sp, #4
    8c5c:	e24dd008 	sub	sp, sp, #8
/home/cf/ZCU/OS/practical/ex3/original/kernel/src/startup.cpp:48
	dtor_ptr* fnptr;
	
	// zavolame destruktory globalnich C++ trid
	for (fnptr = __DTOR_LIST__; fnptr < __DTOR_END__; fnptr++)
    8c60:	e59f303c 	ldr	r3, [pc, #60]	; 8ca4 <_cpp_shutdown+0x50>
    8c64:	e50b3008 	str	r3, [fp, #-8]
    8c68:	ea000005 	b	8c84 <_cpp_shutdown+0x30>
/home/cf/ZCU/OS/practical/ex3/original/kernel/src/startup.cpp:49 (discriminator 3)
		(*fnptr)();
    8c6c:	e51b3008 	ldr	r3, [fp, #-8]
    8c70:	e5933000 	ldr	r3, [r3]
    8c74:	e12fff33 	blx	r3
/home/cf/ZCU/OS/practical/ex3/original/kernel/src/startup.cpp:48 (discriminator 3)
	for (fnptr = __DTOR_LIST__; fnptr < __DTOR_END__; fnptr++)
    8c78:	e51b3008 	ldr	r3, [fp, #-8]
    8c7c:	e2833004 	add	r3, r3, #4
    8c80:	e50b3008 	str	r3, [fp, #-8]
/home/cf/ZCU/OS/practical/ex3/original/kernel/src/startup.cpp:48 (discriminator 1)
    8c84:	e51b3008 	ldr	r3, [fp, #-8]
    8c88:	e59f2018 	ldr	r2, [pc, #24]	; 8ca8 <_cpp_shutdown+0x54>
    8c8c:	e1530002 	cmp	r3, r2
    8c90:	3afffff5 	bcc	8c6c <_cpp_shutdown+0x18>
/home/cf/ZCU/OS/practical/ex3/original/kernel/src/startup.cpp:51
	
	return 0;
    8c94:	e3a03000 	mov	r3, #0
/home/cf/ZCU/OS/practical/ex3/original/kernel/src/startup.cpp:52
}
    8c98:	e1a00003 	mov	r0, r3
    8c9c:	e24bd004 	sub	sp, fp, #4
    8ca0:	e8bd8800 	pop	{fp, pc}
    8ca4:	00008ff0 	strdeq	r8, [r0], -r0
    8ca8:	00008ff0 	strdeq	r8, [r0], -r0

00008cac <__udivsi3>:
__udivsi3():
/builddir/build/BUILD/arm-none-eabi-gcc-cs-12.2.0/gcc-arm-none-eabi/arm-none-eabi/arm/v5te/hard/libgcc/../../../../../../gcc-12.2.0/libgcc/config/arm/lib1funcs.S:1104
    8cac:	e2512001 	subs	r2, r1, #1
/builddir/build/BUILD/arm-none-eabi-gcc-cs-12.2.0/gcc-arm-none-eabi/arm-none-eabi/arm/v5te/hard/libgcc/../../../../../../gcc-12.2.0/libgcc/config/arm/lib1funcs.S:1106
    8cb0:	012fff1e 	bxeq	lr
/builddir/build/BUILD/arm-none-eabi-gcc-cs-12.2.0/gcc-arm-none-eabi/arm-none-eabi/arm/v5te/hard/libgcc/../../../../../../gcc-12.2.0/libgcc/config/arm/lib1funcs.S:1107
    8cb4:	3a000074 	bcc	8e8c <__udivsi3+0x1e0>
/builddir/build/BUILD/arm-none-eabi-gcc-cs-12.2.0/gcc-arm-none-eabi/arm-none-eabi/arm/v5te/hard/libgcc/../../../../../../gcc-12.2.0/libgcc/config/arm/lib1funcs.S:1108
    8cb8:	e1500001 	cmp	r0, r1
/builddir/build/BUILD/arm-none-eabi-gcc-cs-12.2.0/gcc-arm-none-eabi/arm-none-eabi/arm/v5te/hard/libgcc/../../../../../../gcc-12.2.0/libgcc/config/arm/lib1funcs.S:1109
    8cbc:	9a00006b 	bls	8e70 <__udivsi3+0x1c4>
/builddir/build/BUILD/arm-none-eabi-gcc-cs-12.2.0/gcc-arm-none-eabi/arm-none-eabi/arm/v5te/hard/libgcc/../../../../../../gcc-12.2.0/libgcc/config/arm/lib1funcs.S:1110
    8cc0:	e1110002 	tst	r1, r2
/builddir/build/BUILD/arm-none-eabi-gcc-cs-12.2.0/gcc-arm-none-eabi/arm-none-eabi/arm/v5te/hard/libgcc/../../../../../../gcc-12.2.0/libgcc/config/arm/lib1funcs.S:1111
    8cc4:	0a00006c 	beq	8e7c <__udivsi3+0x1d0>
/builddir/build/BUILD/arm-none-eabi-gcc-cs-12.2.0/gcc-arm-none-eabi/arm-none-eabi/arm/v5te/hard/libgcc/../../../../../../gcc-12.2.0/libgcc/config/arm/lib1funcs.S:1113
    8cc8:	e16f3f10 	clz	r3, r0
    8ccc:	e16f2f11 	clz	r2, r1
    8cd0:	e0423003 	sub	r3, r2, r3
    8cd4:	e273301f 	rsbs	r3, r3, #31
    8cd8:	10833083 	addne	r3, r3, r3, lsl #1
    8cdc:	e3a02000 	mov	r2, #0
    8ce0:	108ff103 	addne	pc, pc, r3, lsl #2
    8ce4:	e1a00000 	nop			; (mov r0, r0)
    8ce8:	e1500f81 	cmp	r0, r1, lsl #31
    8cec:	e0a22002 	adc	r2, r2, r2
    8cf0:	20400f81 	subcs	r0, r0, r1, lsl #31
    8cf4:	e1500f01 	cmp	r0, r1, lsl #30
    8cf8:	e0a22002 	adc	r2, r2, r2
    8cfc:	20400f01 	subcs	r0, r0, r1, lsl #30
    8d00:	e1500e81 	cmp	r0, r1, lsl #29
    8d04:	e0a22002 	adc	r2, r2, r2
    8d08:	20400e81 	subcs	r0, r0, r1, lsl #29
    8d0c:	e1500e01 	cmp	r0, r1, lsl #28
    8d10:	e0a22002 	adc	r2, r2, r2
    8d14:	20400e01 	subcs	r0, r0, r1, lsl #28
    8d18:	e1500d81 	cmp	r0, r1, lsl #27
    8d1c:	e0a22002 	adc	r2, r2, r2
    8d20:	20400d81 	subcs	r0, r0, r1, lsl #27
    8d24:	e1500d01 	cmp	r0, r1, lsl #26
    8d28:	e0a22002 	adc	r2, r2, r2
    8d2c:	20400d01 	subcs	r0, r0, r1, lsl #26
    8d30:	e1500c81 	cmp	r0, r1, lsl #25
    8d34:	e0a22002 	adc	r2, r2, r2
    8d38:	20400c81 	subcs	r0, r0, r1, lsl #25
    8d3c:	e1500c01 	cmp	r0, r1, lsl #24
    8d40:	e0a22002 	adc	r2, r2, r2
    8d44:	20400c01 	subcs	r0, r0, r1, lsl #24
    8d48:	e1500b81 	cmp	r0, r1, lsl #23
    8d4c:	e0a22002 	adc	r2, r2, r2
    8d50:	20400b81 	subcs	r0, r0, r1, lsl #23
    8d54:	e1500b01 	cmp	r0, r1, lsl #22
    8d58:	e0a22002 	adc	r2, r2, r2
    8d5c:	20400b01 	subcs	r0, r0, r1, lsl #22
    8d60:	e1500a81 	cmp	r0, r1, lsl #21
    8d64:	e0a22002 	adc	r2, r2, r2
    8d68:	20400a81 	subcs	r0, r0, r1, lsl #21
    8d6c:	e1500a01 	cmp	r0, r1, lsl #20
    8d70:	e0a22002 	adc	r2, r2, r2
    8d74:	20400a01 	subcs	r0, r0, r1, lsl #20
    8d78:	e1500981 	cmp	r0, r1, lsl #19
    8d7c:	e0a22002 	adc	r2, r2, r2
    8d80:	20400981 	subcs	r0, r0, r1, lsl #19
    8d84:	e1500901 	cmp	r0, r1, lsl #18
    8d88:	e0a22002 	adc	r2, r2, r2
    8d8c:	20400901 	subcs	r0, r0, r1, lsl #18
    8d90:	e1500881 	cmp	r0, r1, lsl #17
    8d94:	e0a22002 	adc	r2, r2, r2
    8d98:	20400881 	subcs	r0, r0, r1, lsl #17
    8d9c:	e1500801 	cmp	r0, r1, lsl #16
    8da0:	e0a22002 	adc	r2, r2, r2
    8da4:	20400801 	subcs	r0, r0, r1, lsl #16
    8da8:	e1500781 	cmp	r0, r1, lsl #15
    8dac:	e0a22002 	adc	r2, r2, r2
    8db0:	20400781 	subcs	r0, r0, r1, lsl #15
    8db4:	e1500701 	cmp	r0, r1, lsl #14
    8db8:	e0a22002 	adc	r2, r2, r2
    8dbc:	20400701 	subcs	r0, r0, r1, lsl #14
    8dc0:	e1500681 	cmp	r0, r1, lsl #13
    8dc4:	e0a22002 	adc	r2, r2, r2
    8dc8:	20400681 	subcs	r0, r0, r1, lsl #13
    8dcc:	e1500601 	cmp	r0, r1, lsl #12
    8dd0:	e0a22002 	adc	r2, r2, r2
    8dd4:	20400601 	subcs	r0, r0, r1, lsl #12
    8dd8:	e1500581 	cmp	r0, r1, lsl #11
    8ddc:	e0a22002 	adc	r2, r2, r2
    8de0:	20400581 	subcs	r0, r0, r1, lsl #11
    8de4:	e1500501 	cmp	r0, r1, lsl #10
    8de8:	e0a22002 	adc	r2, r2, r2
    8dec:	20400501 	subcs	r0, r0, r1, lsl #10
    8df0:	e1500481 	cmp	r0, r1, lsl #9
    8df4:	e0a22002 	adc	r2, r2, r2
    8df8:	20400481 	subcs	r0, r0, r1, lsl #9
    8dfc:	e1500401 	cmp	r0, r1, lsl #8
    8e00:	e0a22002 	adc	r2, r2, r2
    8e04:	20400401 	subcs	r0, r0, r1, lsl #8
    8e08:	e1500381 	cmp	r0, r1, lsl #7
    8e0c:	e0a22002 	adc	r2, r2, r2
    8e10:	20400381 	subcs	r0, r0, r1, lsl #7
    8e14:	e1500301 	cmp	r0, r1, lsl #6
    8e18:	e0a22002 	adc	r2, r2, r2
    8e1c:	20400301 	subcs	r0, r0, r1, lsl #6
    8e20:	e1500281 	cmp	r0, r1, lsl #5
    8e24:	e0a22002 	adc	r2, r2, r2
    8e28:	20400281 	subcs	r0, r0, r1, lsl #5
    8e2c:	e1500201 	cmp	r0, r1, lsl #4
    8e30:	e0a22002 	adc	r2, r2, r2
    8e34:	20400201 	subcs	r0, r0, r1, lsl #4
    8e38:	e1500181 	cmp	r0, r1, lsl #3
    8e3c:	e0a22002 	adc	r2, r2, r2
    8e40:	20400181 	subcs	r0, r0, r1, lsl #3
    8e44:	e1500101 	cmp	r0, r1, lsl #2
    8e48:	e0a22002 	adc	r2, r2, r2
    8e4c:	20400101 	subcs	r0, r0, r1, lsl #2
    8e50:	e1500081 	cmp	r0, r1, lsl #1
    8e54:	e0a22002 	adc	r2, r2, r2
    8e58:	20400081 	subcs	r0, r0, r1, lsl #1
    8e5c:	e1500001 	cmp	r0, r1
    8e60:	e0a22002 	adc	r2, r2, r2
    8e64:	20400001 	subcs	r0, r0, r1
/builddir/build/BUILD/arm-none-eabi-gcc-cs-12.2.0/gcc-arm-none-eabi/arm-none-eabi/arm/v5te/hard/libgcc/../../../../../../gcc-12.2.0/libgcc/config/arm/lib1funcs.S:1115
    8e68:	e1a00002 	mov	r0, r2
/builddir/build/BUILD/arm-none-eabi-gcc-cs-12.2.0/gcc-arm-none-eabi/arm-none-eabi/arm/v5te/hard/libgcc/../../../../../../gcc-12.2.0/libgcc/config/arm/lib1funcs.S:1116
    8e6c:	e12fff1e 	bx	lr
/builddir/build/BUILD/arm-none-eabi-gcc-cs-12.2.0/gcc-arm-none-eabi/arm-none-eabi/arm/v5te/hard/libgcc/../../../../../../gcc-12.2.0/libgcc/config/arm/lib1funcs.S:1119
    8e70:	03a00001 	moveq	r0, #1
/builddir/build/BUILD/arm-none-eabi-gcc-cs-12.2.0/gcc-arm-none-eabi/arm-none-eabi/arm/v5te/hard/libgcc/../../../../../../gcc-12.2.0/libgcc/config/arm/lib1funcs.S:1120
    8e74:	13a00000 	movne	r0, #0
/builddir/build/BUILD/arm-none-eabi-gcc-cs-12.2.0/gcc-arm-none-eabi/arm-none-eabi/arm/v5te/hard/libgcc/../../../../../../gcc-12.2.0/libgcc/config/arm/lib1funcs.S:1121
    8e78:	e12fff1e 	bx	lr
/builddir/build/BUILD/arm-none-eabi-gcc-cs-12.2.0/gcc-arm-none-eabi/arm-none-eabi/arm/v5te/hard/libgcc/../../../../../../gcc-12.2.0/libgcc/config/arm/lib1funcs.S:1123
    8e7c:	e16f2f11 	clz	r2, r1
    8e80:	e262201f 	rsb	r2, r2, #31
/builddir/build/BUILD/arm-none-eabi-gcc-cs-12.2.0/gcc-arm-none-eabi/arm-none-eabi/arm/v5te/hard/libgcc/../../../../../../gcc-12.2.0/libgcc/config/arm/lib1funcs.S:1125
    8e84:	e1a00230 	lsr	r0, r0, r2
/builddir/build/BUILD/arm-none-eabi-gcc-cs-12.2.0/gcc-arm-none-eabi/arm-none-eabi/arm/v5te/hard/libgcc/../../../../../../gcc-12.2.0/libgcc/config/arm/lib1funcs.S:1126
    8e88:	e12fff1e 	bx	lr
/builddir/build/BUILD/arm-none-eabi-gcc-cs-12.2.0/gcc-arm-none-eabi/arm-none-eabi/arm/v5te/hard/libgcc/../../../../../../gcc-12.2.0/libgcc/config/arm/lib1funcs.S:1130
    8e8c:	e3500000 	cmp	r0, #0
    8e90:	13e00000 	mvnne	r0, #0
    8e94:	ea000007 	b	8eb8 <__aeabi_idiv0>

00008e98 <__aeabi_uidivmod>:
__aeabi_uidivmod():
/builddir/build/BUILD/arm-none-eabi-gcc-cs-12.2.0/gcc-arm-none-eabi/arm-none-eabi/arm/v5te/hard/libgcc/../../../../../../gcc-12.2.0/libgcc/config/arm/lib1funcs.S:1161
    8e98:	e3510000 	cmp	r1, #0
/builddir/build/BUILD/arm-none-eabi-gcc-cs-12.2.0/gcc-arm-none-eabi/arm-none-eabi/arm/v5te/hard/libgcc/../../../../../../gcc-12.2.0/libgcc/config/arm/lib1funcs.S:1162
    8e9c:	0afffffa 	beq	8e8c <__udivsi3+0x1e0>
/builddir/build/BUILD/arm-none-eabi-gcc-cs-12.2.0/gcc-arm-none-eabi/arm-none-eabi/arm/v5te/hard/libgcc/../../../../../../gcc-12.2.0/libgcc/config/arm/lib1funcs.S:1163
    8ea0:	e92d4003 	push	{r0, r1, lr}
/builddir/build/BUILD/arm-none-eabi-gcc-cs-12.2.0/gcc-arm-none-eabi/arm-none-eabi/arm/v5te/hard/libgcc/../../../../../../gcc-12.2.0/libgcc/config/arm/lib1funcs.S:1164
    8ea4:	ebffff80 	bl	8cac <__udivsi3>
/builddir/build/BUILD/arm-none-eabi-gcc-cs-12.2.0/gcc-arm-none-eabi/arm-none-eabi/arm/v5te/hard/libgcc/../../../../../../gcc-12.2.0/libgcc/config/arm/lib1funcs.S:1165
    8ea8:	e8bd4006 	pop	{r1, r2, lr}
/builddir/build/BUILD/arm-none-eabi-gcc-cs-12.2.0/gcc-arm-none-eabi/arm-none-eabi/arm/v5te/hard/libgcc/../../../../../../gcc-12.2.0/libgcc/config/arm/lib1funcs.S:1166
    8eac:	e0030092 	mul	r3, r2, r0
/builddir/build/BUILD/arm-none-eabi-gcc-cs-12.2.0/gcc-arm-none-eabi/arm-none-eabi/arm/v5te/hard/libgcc/../../../../../../gcc-12.2.0/libgcc/config/arm/lib1funcs.S:1167
    8eb0:	e0411003 	sub	r1, r1, r3
/builddir/build/BUILD/arm-none-eabi-gcc-cs-12.2.0/gcc-arm-none-eabi/arm-none-eabi/arm/v5te/hard/libgcc/../../../../../../gcc-12.2.0/libgcc/config/arm/lib1funcs.S:1168
    8eb4:	e12fff1e 	bx	lr

00008eb8 <__aeabi_idiv0>:
__aeabi_ldiv0():
/builddir/build/BUILD/arm-none-eabi-gcc-cs-12.2.0/gcc-arm-none-eabi/arm-none-eabi/arm/v5te/hard/libgcc/../../../../../../gcc-12.2.0/libgcc/config/arm/lib1funcs.S:1466
    8eb8:	e12fff1e 	bx	lr
