
./kernel:     file format elf32-littlearm


Disassembly of section .text:

00008000 <_start>:
_start():
/home/cf/ZCU/first_year/winter/OS/practical/ex3/kernel/src/start.s:8
;@ tady budou symboly, ktere chceme na zacatek kodove sekce
.section .text.start

;@ vstupni bod do kernelu - nechame ho vlozit na zacatek kodu
_start:
    mov sp,#0x8000			;@ nastavime stack pointer na spodek zasobniku
    8000:	e3a0d902 	mov	sp, #32768	; 0x8000
/home/cf/ZCU/first_year/winter/OS/practical/ex3/kernel/src/start.s:9
	bl _c_startup			;@ C startup kod (inicializace prostredi)
    8004:	eb0003eb 	bl	8fb8 <_c_startup>
/home/cf/ZCU/first_year/winter/OS/practical/ex3/kernel/src/start.s:10
	bl _cpp_startup			;@ C++ startup kod (volani globalnich konstruktoru, ...)
    8008:	eb000404 	bl	9020 <_cpp_startup>
/home/cf/ZCU/first_year/winter/OS/practical/ex3/kernel/src/start.s:11
    bl _kernel_main			;@ skocime do hlavniho kodu jadra (v C)
    800c:	eb0003a3 	bl	8ea0 <_kernel_main>
/home/cf/ZCU/first_year/winter/OS/practical/ex3/kernel/src/start.s:12
	bl _cpp_shutdown		;@ C++ shutdown kod (volani globalnich destruktoru, ...)
    8010:	eb000418 	bl	9078 <_cpp_shutdown>

00008014 <hang>:
hang():
/home/cf/ZCU/first_year/winter/OS/practical/ex3/kernel/src/start.s:14
hang:
    b hang
    8014:	eafffffe 	b	8014 <hang>

00008018 <__cxa_guard_acquire>:
__cxa_guard_acquire():
/home/cf/ZCU/first_year/winter/OS/practical/ex3/kernel/src/cxx.cpp:11
	extern "C" int __cxa_guard_acquire (__guard *);
	extern "C" void __cxa_guard_release (__guard *);
	extern "C" void __cxa_guard_abort (__guard *);

	extern "C" int __cxa_guard_acquire (__guard *g)
	{
    8018:	e52db004 	push	{fp}		; (str fp, [sp, #-4]!)
    801c:	e28db000 	add	fp, sp, #0
    8020:	e24dd00c 	sub	sp, sp, #12
    8024:	e50b0008 	str	r0, [fp, #-8]
/home/cf/ZCU/first_year/winter/OS/practical/ex3/kernel/src/cxx.cpp:12
		return !*(char *)(g);
    8028:	e51b3008 	ldr	r3, [fp, #-8]
    802c:	e5d33000 	ldrb	r3, [r3]
    8030:	e3530000 	cmp	r3, #0
    8034:	03a03001 	moveq	r3, #1
    8038:	13a03000 	movne	r3, #0
    803c:	e6ef3073 	uxtb	r3, r3
/home/cf/ZCU/first_year/winter/OS/practical/ex3/kernel/src/cxx.cpp:13
	}
    8040:	e1a00003 	mov	r0, r3
    8044:	e28bd000 	add	sp, fp, #0
    8048:	e49db004 	pop	{fp}		; (ldr fp, [sp], #4)
    804c:	e12fff1e 	bx	lr

00008050 <__cxa_guard_release>:
__cxa_guard_release():
/home/cf/ZCU/first_year/winter/OS/practical/ex3/kernel/src/cxx.cpp:16

	extern "C" void __cxa_guard_release (__guard *g)
	{
    8050:	e52db004 	push	{fp}		; (str fp, [sp, #-4]!)
    8054:	e28db000 	add	fp, sp, #0
    8058:	e24dd00c 	sub	sp, sp, #12
    805c:	e50b0008 	str	r0, [fp, #-8]
/home/cf/ZCU/first_year/winter/OS/practical/ex3/kernel/src/cxx.cpp:17
		*(char *)g = 1;
    8060:	e51b3008 	ldr	r3, [fp, #-8]
    8064:	e3a02001 	mov	r2, #1
    8068:	e5c32000 	strb	r2, [r3]
/home/cf/ZCU/first_year/winter/OS/practical/ex3/kernel/src/cxx.cpp:18
	}
    806c:	e320f000 	nop	{0}
    8070:	e28bd000 	add	sp, fp, #0
    8074:	e49db004 	pop	{fp}		; (ldr fp, [sp], #4)
    8078:	e12fff1e 	bx	lr

0000807c <__cxa_guard_abort>:
__cxa_guard_abort():
/home/cf/ZCU/first_year/winter/OS/practical/ex3/kernel/src/cxx.cpp:21

	extern "C" void __cxa_guard_abort (__guard *)
	{
    807c:	e52db004 	push	{fp}		; (str fp, [sp, #-4]!)
    8080:	e28db000 	add	fp, sp, #0
    8084:	e24dd00c 	sub	sp, sp, #12
    8088:	e50b0008 	str	r0, [fp, #-8]
/home/cf/ZCU/first_year/winter/OS/practical/ex3/kernel/src/cxx.cpp:23

	}
    808c:	e320f000 	nop	{0}
    8090:	e28bd000 	add	sp, fp, #0
    8094:	e49db004 	pop	{fp}		; (ldr fp, [sp], #4)
    8098:	e12fff1e 	bx	lr

0000809c <__dso_handle>:
__dso_handle():
/home/cf/ZCU/first_year/winter/OS/practical/ex3/kernel/src/cxx.cpp:27
}

extern "C" void __dso_handle()
{
    809c:	e52db004 	push	{fp}		; (str fp, [sp, #-4]!)
    80a0:	e28db000 	add	fp, sp, #0
/home/cf/ZCU/first_year/winter/OS/practical/ex3/kernel/src/cxx.cpp:29
    // ignore dtors for now
}
    80a4:	e320f000 	nop	{0}
    80a8:	e28bd000 	add	sp, fp, #0
    80ac:	e49db004 	pop	{fp}		; (ldr fp, [sp], #4)
    80b0:	e12fff1e 	bx	lr

000080b4 <__cxa_atexit>:
__cxa_atexit():
/home/cf/ZCU/first_year/winter/OS/practical/ex3/kernel/src/cxx.cpp:32

extern "C" void __cxa_atexit()
{
    80b4:	e52db004 	push	{fp}		; (str fp, [sp, #-4]!)
    80b8:	e28db000 	add	fp, sp, #0
/home/cf/ZCU/first_year/winter/OS/practical/ex3/kernel/src/cxx.cpp:34
    // ignore dtors for now
}
    80bc:	e320f000 	nop	{0}
    80c0:	e28bd000 	add	sp, fp, #0
    80c4:	e49db004 	pop	{fp}		; (ldr fp, [sp], #4)
    80c8:	e12fff1e 	bx	lr

000080cc <__cxa_pure_virtual>:
__cxa_pure_virtual():
/home/cf/ZCU/first_year/winter/OS/practical/ex3/kernel/src/cxx.cpp:37

extern "C" void __cxa_pure_virtual()
{
    80cc:	e52db004 	push	{fp}		; (str fp, [sp, #-4]!)
    80d0:	e28db000 	add	fp, sp, #0
/home/cf/ZCU/first_year/winter/OS/practical/ex3/kernel/src/cxx.cpp:39
    // pure virtual method called
}
    80d4:	e320f000 	nop	{0}
    80d8:	e28bd000 	add	sp, fp, #0
    80dc:	e49db004 	pop	{fp}		; (ldr fp, [sp], #4)
    80e0:	e12fff1e 	bx	lr

000080e4 <__aeabi_unwind_cpp_pr1>:
__aeabi_unwind_cpp_pr1():
/home/cf/ZCU/first_year/winter/OS/practical/ex3/kernel/src/cxx.cpp:42

extern "C" void __aeabi_unwind_cpp_pr1()
{
    80e4:	e52db004 	push	{fp}		; (str fp, [sp, #-4]!)
    80e8:	e28db000 	add	fp, sp, #0
/home/cf/ZCU/first_year/winter/OS/practical/ex3/kernel/src/cxx.cpp:43 (discriminator 1)
	while (true)
    80ec:	eafffffe 	b	80ec <__aeabi_unwind_cpp_pr1+0x8>

000080f0 <_ZN4CAUXC1Ej>:
_ZN4CAUXC2Ej():
/home/cf/ZCU/first_year/winter/OS/practical/ex3/kernel/src/drivers/bcm_aux.cpp:5
#include <drivers/bcm_aux.h>

CAUX sAUX(hal::AUX_Base);

CAUX::CAUX(unsigned int aux_base)
    80f0:	e52db004 	push	{fp}		; (str fp, [sp, #-4]!)
    80f4:	e28db000 	add	fp, sp, #0
    80f8:	e24dd00c 	sub	sp, sp, #12
    80fc:	e50b0008 	str	r0, [fp, #-8]
    8100:	e50b100c 	str	r1, [fp, #-12]
/home/cf/ZCU/first_year/winter/OS/practical/ex3/kernel/src/drivers/bcm_aux.cpp:6
    : mAUX_Reg(reinterpret_cast<unsigned int*>(aux_base))
    8104:	e51b200c 	ldr	r2, [fp, #-12]
    8108:	e51b3008 	ldr	r3, [fp, #-8]
    810c:	e5832000 	str	r2, [r3]
/home/cf/ZCU/first_year/winter/OS/practical/ex3/kernel/src/drivers/bcm_aux.cpp:9
{
    //
}
    8110:	e51b3008 	ldr	r3, [fp, #-8]
    8114:	e1a00003 	mov	r0, r3
    8118:	e28bd000 	add	sp, fp, #0
    811c:	e49db004 	pop	{fp}		; (ldr fp, [sp], #4)
    8120:	e12fff1e 	bx	lr

00008124 <_ZN4CAUX6EnableEN3hal15AUX_PeripheralsE>:
_ZN4CAUX6EnableEN3hal15AUX_PeripheralsE():
/home/cf/ZCU/first_year/winter/OS/practical/ex3/kernel/src/drivers/bcm_aux.cpp:12

void CAUX::Enable(hal::AUX_Peripherals aux_peripheral)
{
    8124:	e92d4800 	push	{fp, lr}
    8128:	e28db004 	add	fp, sp, #4
    812c:	e24dd008 	sub	sp, sp, #8
    8130:	e50b0008 	str	r0, [fp, #-8]
    8134:	e50b100c 	str	r1, [fp, #-12]
/home/cf/ZCU/first_year/winter/OS/practical/ex3/kernel/src/drivers/bcm_aux.cpp:13
    Set_Register(hal::AUX_Reg::ENABLES, Get_Register(hal::AUX_Reg::ENABLES) | (1 << static_cast<uint32_t>(aux_peripheral)));
    8138:	e3a01001 	mov	r1, #1
    813c:	e51b0008 	ldr	r0, [fp, #-8]
    8140:	eb000031 	bl	820c <_ZN4CAUX12Get_RegisterEN3hal7AUX_RegE>
    8144:	e1a02000 	mov	r2, r0
    8148:	e51b300c 	ldr	r3, [fp, #-12]
    814c:	e3a01001 	mov	r1, #1
    8150:	e1a03311 	lsl	r3, r1, r3
    8154:	e1823003 	orr	r3, r2, r3
    8158:	e1a02003 	mov	r2, r3
    815c:	e3a01001 	mov	r1, #1
    8160:	e51b0008 	ldr	r0, [fp, #-8]
    8164:	eb000017 	bl	81c8 <_ZN4CAUX12Set_RegisterEN3hal7AUX_RegEj>
/home/cf/ZCU/first_year/winter/OS/practical/ex3/kernel/src/drivers/bcm_aux.cpp:14
}
    8168:	e320f000 	nop	{0}
    816c:	e24bd004 	sub	sp, fp, #4
    8170:	e8bd8800 	pop	{fp, pc}

00008174 <_ZN4CAUX7DisableEN3hal15AUX_PeripheralsE>:
_ZN4CAUX7DisableEN3hal15AUX_PeripheralsE():
/home/cf/ZCU/first_year/winter/OS/practical/ex3/kernel/src/drivers/bcm_aux.cpp:17

void CAUX::Disable(hal::AUX_Peripherals aux_peripheral)
{
    8174:	e92d4800 	push	{fp, lr}
    8178:	e28db004 	add	fp, sp, #4
    817c:	e24dd008 	sub	sp, sp, #8
    8180:	e50b0008 	str	r0, [fp, #-8]
    8184:	e50b100c 	str	r1, [fp, #-12]
/home/cf/ZCU/first_year/winter/OS/practical/ex3/kernel/src/drivers/bcm_aux.cpp:18
    Set_Register(hal::AUX_Reg::ENABLES, Get_Register(hal::AUX_Reg::ENABLES) & ~(1 << static_cast<uint32_t>(aux_peripheral)));
    8188:	e3a01001 	mov	r1, #1
    818c:	e51b0008 	ldr	r0, [fp, #-8]
    8190:	eb00001d 	bl	820c <_ZN4CAUX12Get_RegisterEN3hal7AUX_RegE>
    8194:	e1a02000 	mov	r2, r0
    8198:	e51b300c 	ldr	r3, [fp, #-12]
    819c:	e3a01001 	mov	r1, #1
    81a0:	e1a03311 	lsl	r3, r1, r3
    81a4:	e1e03003 	mvn	r3, r3
    81a8:	e0033002 	and	r3, r3, r2
    81ac:	e1a02003 	mov	r2, r3
    81b0:	e3a01001 	mov	r1, #1
    81b4:	e51b0008 	ldr	r0, [fp, #-8]
    81b8:	eb000002 	bl	81c8 <_ZN4CAUX12Set_RegisterEN3hal7AUX_RegEj>
/home/cf/ZCU/first_year/winter/OS/practical/ex3/kernel/src/drivers/bcm_aux.cpp:19
}
    81bc:	e320f000 	nop	{0}
    81c0:	e24bd004 	sub	sp, fp, #4
    81c4:	e8bd8800 	pop	{fp, pc}

000081c8 <_ZN4CAUX12Set_RegisterEN3hal7AUX_RegEj>:
_ZN4CAUX12Set_RegisterEN3hal7AUX_RegEj():
/home/cf/ZCU/first_year/winter/OS/practical/ex3/kernel/src/drivers/bcm_aux.cpp:22

void CAUX::Set_Register(hal::AUX_Reg reg_idx, uint32_t value)
{
    81c8:	e52db004 	push	{fp}		; (str fp, [sp, #-4]!)
    81cc:	e28db000 	add	fp, sp, #0
    81d0:	e24dd014 	sub	sp, sp, #20
    81d4:	e50b0008 	str	r0, [fp, #-8]
    81d8:	e50b100c 	str	r1, [fp, #-12]
    81dc:	e50b2010 	str	r2, [fp, #-16]
/home/cf/ZCU/first_year/winter/OS/practical/ex3/kernel/src/drivers/bcm_aux.cpp:23
    mAUX_Reg[static_cast<unsigned int>(reg_idx)] = value;
    81e0:	e51b3008 	ldr	r3, [fp, #-8]
    81e4:	e5932000 	ldr	r2, [r3]
    81e8:	e51b300c 	ldr	r3, [fp, #-12]
    81ec:	e1a03103 	lsl	r3, r3, #2
    81f0:	e0823003 	add	r3, r2, r3
    81f4:	e51b2010 	ldr	r2, [fp, #-16]
    81f8:	e5832000 	str	r2, [r3]
/home/cf/ZCU/first_year/winter/OS/practical/ex3/kernel/src/drivers/bcm_aux.cpp:24
}
    81fc:	e320f000 	nop	{0}
    8200:	e28bd000 	add	sp, fp, #0
    8204:	e49db004 	pop	{fp}		; (ldr fp, [sp], #4)
    8208:	e12fff1e 	bx	lr

0000820c <_ZN4CAUX12Get_RegisterEN3hal7AUX_RegE>:
_ZN4CAUX12Get_RegisterEN3hal7AUX_RegE():
/home/cf/ZCU/first_year/winter/OS/practical/ex3/kernel/src/drivers/bcm_aux.cpp:27

uint32_t CAUX::Get_Register(hal::AUX_Reg reg_idx)
{
    820c:	e52db004 	push	{fp}		; (str fp, [sp, #-4]!)
    8210:	e28db000 	add	fp, sp, #0
    8214:	e24dd00c 	sub	sp, sp, #12
    8218:	e50b0008 	str	r0, [fp, #-8]
    821c:	e50b100c 	str	r1, [fp, #-12]
/home/cf/ZCU/first_year/winter/OS/practical/ex3/kernel/src/drivers/bcm_aux.cpp:28
    return mAUX_Reg[static_cast<unsigned int>(reg_idx)];
    8220:	e51b3008 	ldr	r3, [fp, #-8]
    8224:	e5932000 	ldr	r2, [r3]
    8228:	e51b300c 	ldr	r3, [fp, #-12]
    822c:	e1a03103 	lsl	r3, r3, #2
    8230:	e0823003 	add	r3, r2, r3
    8234:	e5933000 	ldr	r3, [r3]
/home/cf/ZCU/first_year/winter/OS/practical/ex3/kernel/src/drivers/bcm_aux.cpp:29
}
    8238:	e1a00003 	mov	r0, r3
    823c:	e28bd000 	add	sp, fp, #0
    8240:	e49db004 	pop	{fp}		; (ldr fp, [sp], #4)
    8244:	e12fff1e 	bx	lr

00008248 <_Z41__static_initialization_and_destruction_0ii>:
_Z41__static_initialization_and_destruction_0ii():
/home/cf/ZCU/first_year/winter/OS/practical/ex3/kernel/src/drivers/bcm_aux.cpp:29
    8248:	e92d4800 	push	{fp, lr}
    824c:	e28db004 	add	fp, sp, #4
    8250:	e24dd008 	sub	sp, sp, #8
    8254:	e50b0008 	str	r0, [fp, #-8]
    8258:	e50b100c 	str	r1, [fp, #-12]
    825c:	e51b3008 	ldr	r3, [fp, #-8]
    8260:	e3530001 	cmp	r3, #1
    8264:	1a000006 	bne	8284 <_Z41__static_initialization_and_destruction_0ii+0x3c>
/home/cf/ZCU/first_year/winter/OS/practical/ex3/kernel/src/drivers/bcm_aux.cpp:29 (discriminator 1)
    8268:	e51b300c 	ldr	r3, [fp, #-12]
    826c:	e59f201c 	ldr	r2, [pc, #28]	; 8290 <_Z41__static_initialization_and_destruction_0ii+0x48>
    8270:	e1530002 	cmp	r3, r2
    8274:	1a000002 	bne	8284 <_Z41__static_initialization_and_destruction_0ii+0x3c>
/home/cf/ZCU/first_year/winter/OS/practical/ex3/kernel/src/drivers/bcm_aux.cpp:3
CAUX sAUX(hal::AUX_Base);
    8278:	e59f1014 	ldr	r1, [pc, #20]	; 8294 <_Z41__static_initialization_and_destruction_0ii+0x4c>
    827c:	e59f0014 	ldr	r0, [pc, #20]	; 8298 <_Z41__static_initialization_and_destruction_0ii+0x50>
    8280:	ebffff9a 	bl	80f0 <_ZN4CAUXC1Ej>
/home/cf/ZCU/first_year/winter/OS/practical/ex3/kernel/src/drivers/bcm_aux.cpp:29
}
    8284:	e320f000 	nop	{0}
    8288:	e24bd004 	sub	sp, fp, #4
    828c:	e8bd8800 	pop	{fp, pc}
    8290:	0000ffff 	strdeq	pc, [r0], -pc	; <UNPREDICTABLE>
    8294:	20215000 	eorcs	r5, r1, r0
    8298:	000097c8 	andeq	r9, r0, r8, asr #15

0000829c <_GLOBAL__sub_I_sAUX>:
_GLOBAL__sub_I_sAUX():
/home/cf/ZCU/first_year/winter/OS/practical/ex3/kernel/src/drivers/bcm_aux.cpp:29
    829c:	e92d4800 	push	{fp, lr}
    82a0:	e28db004 	add	fp, sp, #4
    82a4:	e59f1008 	ldr	r1, [pc, #8]	; 82b4 <_GLOBAL__sub_I_sAUX+0x18>
    82a8:	e3a00001 	mov	r0, #1
    82ac:	ebffffe5 	bl	8248 <_Z41__static_initialization_and_destruction_0ii>
    82b0:	e8bd8800 	pop	{fp, pc}
    82b4:	0000ffff 	strdeq	pc, [r0], -pc	; <UNPREDICTABLE>

000082b8 <_ZN13CGPIO_HandlerC1Ej>:
_ZN13CGPIO_HandlerC2Ej():
/home/cf/ZCU/first_year/winter/OS/practical/ex3/kernel/src/drivers/gpio.cpp:6
#include <hal/peripherals.h>
#include <drivers/gpio.h>

CGPIO_Handler sGPIO(hal::GPIO_Base);

CGPIO_Handler::CGPIO_Handler(unsigned int gpio_base_addr)
    82b8:	e52db004 	push	{fp}		; (str fp, [sp, #-4]!)
    82bc:	e28db000 	add	fp, sp, #0
    82c0:	e24dd00c 	sub	sp, sp, #12
    82c4:	e50b0008 	str	r0, [fp, #-8]
    82c8:	e50b100c 	str	r1, [fp, #-12]
/home/cf/ZCU/first_year/winter/OS/practical/ex3/kernel/src/drivers/gpio.cpp:7
	: mGPIO(reinterpret_cast<unsigned int*>(gpio_base_addr))
    82cc:	e51b200c 	ldr	r2, [fp, #-12]
    82d0:	e51b3008 	ldr	r3, [fp, #-8]
    82d4:	e5832000 	str	r2, [r3]
/home/cf/ZCU/first_year/winter/OS/practical/ex3/kernel/src/drivers/gpio.cpp:10
{
	//
}
    82d8:	e51b3008 	ldr	r3, [fp, #-8]
    82dc:	e1a00003 	mov	r0, r3
    82e0:	e28bd000 	add	sp, fp, #0
    82e4:	e49db004 	pop	{fp}		; (ldr fp, [sp], #4)
    82e8:	e12fff1e 	bx	lr

000082ec <_ZNK13CGPIO_Handler19Get_GPFSEL_LocationEjRjS0_>:
_ZNK13CGPIO_Handler19Get_GPFSEL_LocationEjRjS0_():
/home/cf/ZCU/first_year/winter/OS/practical/ex3/kernel/src/drivers/gpio.cpp:13

bool CGPIO_Handler::Get_GPFSEL_Location(uint32_t pin, uint32_t& reg, uint32_t& bit_idx) const
{
    82ec:	e52db004 	push	{fp}		; (str fp, [sp, #-4]!)
    82f0:	e28db000 	add	fp, sp, #0
    82f4:	e24dd014 	sub	sp, sp, #20
    82f8:	e50b0008 	str	r0, [fp, #-8]
    82fc:	e50b100c 	str	r1, [fp, #-12]
    8300:	e50b2010 	str	r2, [fp, #-16]
    8304:	e50b3014 	str	r3, [fp, #-20]	; 0xffffffec
/home/cf/ZCU/first_year/winter/OS/practical/ex3/kernel/src/drivers/gpio.cpp:14
	if (pin > hal::GPIO_Pin_Count)
    8308:	e51b300c 	ldr	r3, [fp, #-12]
    830c:	e3530036 	cmp	r3, #54	; 0x36
    8310:	9a000001 	bls	831c <_ZNK13CGPIO_Handler19Get_GPFSEL_LocationEjRjS0_+0x30>
/home/cf/ZCU/first_year/winter/OS/practical/ex3/kernel/src/drivers/gpio.cpp:15
		return false;
    8314:	e3a03000 	mov	r3, #0
    8318:	ea000033 	b	83ec <_ZNK13CGPIO_Handler19Get_GPFSEL_LocationEjRjS0_+0x100>
/home/cf/ZCU/first_year/winter/OS/practical/ex3/kernel/src/drivers/gpio.cpp:17
	
	switch (pin / 10)
    831c:	e51b300c 	ldr	r3, [fp, #-12]
    8320:	e59f20d4 	ldr	r2, [pc, #212]	; 83fc <_ZNK13CGPIO_Handler19Get_GPFSEL_LocationEjRjS0_+0x110>
    8324:	e0832392 	umull	r2, r3, r2, r3
    8328:	e1a031a3 	lsr	r3, r3, #3
    832c:	e3530005 	cmp	r3, #5
    8330:	979ff103 	ldrls	pc, [pc, r3, lsl #2]
    8334:	ea00001d 	b	83b0 <_ZNK13CGPIO_Handler19Get_GPFSEL_LocationEjRjS0_+0xc4>
    8338:	00008350 	andeq	r8, r0, r0, asr r3
    833c:	00008360 	andeq	r8, r0, r0, ror #6
    8340:	00008370 	andeq	r8, r0, r0, ror r3
    8344:	00008380 	andeq	r8, r0, r0, lsl #7
    8348:	00008390 	muleq	r0, r0, r3
    834c:	000083a0 	andeq	r8, r0, r0, lsr #7
/home/cf/ZCU/first_year/winter/OS/practical/ex3/kernel/src/drivers/gpio.cpp:19
	{
		case 0: reg = static_cast<uint32_t>(hal::GPIO_Reg::GPFSEL0); break;
    8350:	e51b3010 	ldr	r3, [fp, #-16]
    8354:	e3a02000 	mov	r2, #0
    8358:	e5832000 	str	r2, [r3]
    835c:	ea000013 	b	83b0 <_ZNK13CGPIO_Handler19Get_GPFSEL_LocationEjRjS0_+0xc4>
/home/cf/ZCU/first_year/winter/OS/practical/ex3/kernel/src/drivers/gpio.cpp:20
		case 1: reg = static_cast<uint32_t>(hal::GPIO_Reg::GPFSEL1); break;
    8360:	e51b3010 	ldr	r3, [fp, #-16]
    8364:	e3a02001 	mov	r2, #1
    8368:	e5832000 	str	r2, [r3]
    836c:	ea00000f 	b	83b0 <_ZNK13CGPIO_Handler19Get_GPFSEL_LocationEjRjS0_+0xc4>
/home/cf/ZCU/first_year/winter/OS/practical/ex3/kernel/src/drivers/gpio.cpp:21
		case 2: reg = static_cast<uint32_t>(hal::GPIO_Reg::GPFSEL2); break;
    8370:	e51b3010 	ldr	r3, [fp, #-16]
    8374:	e3a02002 	mov	r2, #2
    8378:	e5832000 	str	r2, [r3]
    837c:	ea00000b 	b	83b0 <_ZNK13CGPIO_Handler19Get_GPFSEL_LocationEjRjS0_+0xc4>
/home/cf/ZCU/first_year/winter/OS/practical/ex3/kernel/src/drivers/gpio.cpp:22
		case 3: reg = static_cast<uint32_t>(hal::GPIO_Reg::GPFSEL3); break;
    8380:	e51b3010 	ldr	r3, [fp, #-16]
    8384:	e3a02003 	mov	r2, #3
    8388:	e5832000 	str	r2, [r3]
    838c:	ea000007 	b	83b0 <_ZNK13CGPIO_Handler19Get_GPFSEL_LocationEjRjS0_+0xc4>
/home/cf/ZCU/first_year/winter/OS/practical/ex3/kernel/src/drivers/gpio.cpp:23
		case 4: reg = static_cast<uint32_t>(hal::GPIO_Reg::GPFSEL4); break;
    8390:	e51b3010 	ldr	r3, [fp, #-16]
    8394:	e3a02004 	mov	r2, #4
    8398:	e5832000 	str	r2, [r3]
    839c:	ea000003 	b	83b0 <_ZNK13CGPIO_Handler19Get_GPFSEL_LocationEjRjS0_+0xc4>
/home/cf/ZCU/first_year/winter/OS/practical/ex3/kernel/src/drivers/gpio.cpp:24
		case 5: reg = static_cast<uint32_t>(hal::GPIO_Reg::GPFSEL5); break;
    83a0:	e51b3010 	ldr	r3, [fp, #-16]
    83a4:	e3a02005 	mov	r2, #5
    83a8:	e5832000 	str	r2, [r3]
    83ac:	e320f000 	nop	{0}
/home/cf/ZCU/first_year/winter/OS/practical/ex3/kernel/src/drivers/gpio.cpp:27
	}
	
	bit_idx = (pin % 10) * 3;
    83b0:	e51b100c 	ldr	r1, [fp, #-12]
    83b4:	e59f3040 	ldr	r3, [pc, #64]	; 83fc <_ZNK13CGPIO_Handler19Get_GPFSEL_LocationEjRjS0_+0x110>
    83b8:	e0832193 	umull	r2, r3, r3, r1
    83bc:	e1a021a3 	lsr	r2, r3, #3
    83c0:	e1a03002 	mov	r3, r2
    83c4:	e1a03103 	lsl	r3, r3, #2
    83c8:	e0833002 	add	r3, r3, r2
    83cc:	e1a03083 	lsl	r3, r3, #1
    83d0:	e0412003 	sub	r2, r1, r3
    83d4:	e1a03002 	mov	r3, r2
    83d8:	e1a03083 	lsl	r3, r3, #1
    83dc:	e0832002 	add	r2, r3, r2
    83e0:	e51b3014 	ldr	r3, [fp, #-20]	; 0xffffffec
    83e4:	e5832000 	str	r2, [r3]
/home/cf/ZCU/first_year/winter/OS/practical/ex3/kernel/src/drivers/gpio.cpp:29
	
	return true;
    83e8:	e3a03001 	mov	r3, #1
/home/cf/ZCU/first_year/winter/OS/practical/ex3/kernel/src/drivers/gpio.cpp:30
}
    83ec:	e1a00003 	mov	r0, r3
    83f0:	e28bd000 	add	sp, fp, #0
    83f4:	e49db004 	pop	{fp}		; (ldr fp, [sp], #4)
    83f8:	e12fff1e 	bx	lr
    83fc:	cccccccd 	stclgt	12, cr12, [ip], {205}	; 0xcd

00008400 <_ZNK13CGPIO_Handler18Get_GPCLR_LocationEjRjS0_>:
_ZNK13CGPIO_Handler18Get_GPCLR_LocationEjRjS0_():
/home/cf/ZCU/first_year/winter/OS/practical/ex3/kernel/src/drivers/gpio.cpp:33

bool CGPIO_Handler::Get_GPCLR_Location(uint32_t pin, uint32_t& reg, uint32_t& bit_idx) const
{
    8400:	e52db004 	push	{fp}		; (str fp, [sp, #-4]!)
    8404:	e28db000 	add	fp, sp, #0
    8408:	e24dd014 	sub	sp, sp, #20
    840c:	e50b0008 	str	r0, [fp, #-8]
    8410:	e50b100c 	str	r1, [fp, #-12]
    8414:	e50b2010 	str	r2, [fp, #-16]
    8418:	e50b3014 	str	r3, [fp, #-20]	; 0xffffffec
/home/cf/ZCU/first_year/winter/OS/practical/ex3/kernel/src/drivers/gpio.cpp:34
	if (pin > hal::GPIO_Pin_Count)
    841c:	e51b300c 	ldr	r3, [fp, #-12]
    8420:	e3530036 	cmp	r3, #54	; 0x36
    8424:	9a000001 	bls	8430 <_ZNK13CGPIO_Handler18Get_GPCLR_LocationEjRjS0_+0x30>
/home/cf/ZCU/first_year/winter/OS/practical/ex3/kernel/src/drivers/gpio.cpp:35
		return false;
    8428:	e3a03000 	mov	r3, #0
    842c:	ea00000c 	b	8464 <_ZNK13CGPIO_Handler18Get_GPCLR_LocationEjRjS0_+0x64>
/home/cf/ZCU/first_year/winter/OS/practical/ex3/kernel/src/drivers/gpio.cpp:37
	
	reg = static_cast<uint32_t>((pin < 32) ? hal::GPIO_Reg::GPCLR0 : hal::GPIO_Reg::GPCLR1);
    8430:	e51b300c 	ldr	r3, [fp, #-12]
    8434:	e353001f 	cmp	r3, #31
    8438:	8a000001 	bhi	8444 <_ZNK13CGPIO_Handler18Get_GPCLR_LocationEjRjS0_+0x44>
/home/cf/ZCU/first_year/winter/OS/practical/ex3/kernel/src/drivers/gpio.cpp:37 (discriminator 1)
    843c:	e3a0200a 	mov	r2, #10
    8440:	ea000000 	b	8448 <_ZNK13CGPIO_Handler18Get_GPCLR_LocationEjRjS0_+0x48>
/home/cf/ZCU/first_year/winter/OS/practical/ex3/kernel/src/drivers/gpio.cpp:37 (discriminator 2)
    8444:	e3a0200b 	mov	r2, #11
/home/cf/ZCU/first_year/winter/OS/practical/ex3/kernel/src/drivers/gpio.cpp:37 (discriminator 4)
    8448:	e51b3010 	ldr	r3, [fp, #-16]
    844c:	e5832000 	str	r2, [r3]
/home/cf/ZCU/first_year/winter/OS/practical/ex3/kernel/src/drivers/gpio.cpp:38 (discriminator 4)
	bit_idx = pin % 32;
    8450:	e51b300c 	ldr	r3, [fp, #-12]
    8454:	e203201f 	and	r2, r3, #31
    8458:	e51b3014 	ldr	r3, [fp, #-20]	; 0xffffffec
    845c:	e5832000 	str	r2, [r3]
/home/cf/ZCU/first_year/winter/OS/practical/ex3/kernel/src/drivers/gpio.cpp:40 (discriminator 4)
	
	return true;
    8460:	e3a03001 	mov	r3, #1
/home/cf/ZCU/first_year/winter/OS/practical/ex3/kernel/src/drivers/gpio.cpp:41
}
    8464:	e1a00003 	mov	r0, r3
    8468:	e28bd000 	add	sp, fp, #0
    846c:	e49db004 	pop	{fp}		; (ldr fp, [sp], #4)
    8470:	e12fff1e 	bx	lr

00008474 <_ZNK13CGPIO_Handler18Get_GPSET_LocationEjRjS0_>:
_ZNK13CGPIO_Handler18Get_GPSET_LocationEjRjS0_():
/home/cf/ZCU/first_year/winter/OS/practical/ex3/kernel/src/drivers/gpio.cpp:44

bool CGPIO_Handler::Get_GPSET_Location(uint32_t pin, uint32_t& reg, uint32_t& bit_idx) const
{
    8474:	e52db004 	push	{fp}		; (str fp, [sp, #-4]!)
    8478:	e28db000 	add	fp, sp, #0
    847c:	e24dd014 	sub	sp, sp, #20
    8480:	e50b0008 	str	r0, [fp, #-8]
    8484:	e50b100c 	str	r1, [fp, #-12]
    8488:	e50b2010 	str	r2, [fp, #-16]
    848c:	e50b3014 	str	r3, [fp, #-20]	; 0xffffffec
/home/cf/ZCU/first_year/winter/OS/practical/ex3/kernel/src/drivers/gpio.cpp:45
	if (pin > hal::GPIO_Pin_Count)
    8490:	e51b300c 	ldr	r3, [fp, #-12]
    8494:	e3530036 	cmp	r3, #54	; 0x36
    8498:	9a000001 	bls	84a4 <_ZNK13CGPIO_Handler18Get_GPSET_LocationEjRjS0_+0x30>
/home/cf/ZCU/first_year/winter/OS/practical/ex3/kernel/src/drivers/gpio.cpp:46
		return false;
    849c:	e3a03000 	mov	r3, #0
    84a0:	ea00000c 	b	84d8 <_ZNK13CGPIO_Handler18Get_GPSET_LocationEjRjS0_+0x64>
/home/cf/ZCU/first_year/winter/OS/practical/ex3/kernel/src/drivers/gpio.cpp:48
	
	reg = static_cast<uint32_t>((pin < 32) ? hal::GPIO_Reg::GPSET0 : hal::GPIO_Reg::GPSET1);
    84a4:	e51b300c 	ldr	r3, [fp, #-12]
    84a8:	e353001f 	cmp	r3, #31
    84ac:	8a000001 	bhi	84b8 <_ZNK13CGPIO_Handler18Get_GPSET_LocationEjRjS0_+0x44>
/home/cf/ZCU/first_year/winter/OS/practical/ex3/kernel/src/drivers/gpio.cpp:48 (discriminator 1)
    84b0:	e3a02007 	mov	r2, #7
    84b4:	ea000000 	b	84bc <_ZNK13CGPIO_Handler18Get_GPSET_LocationEjRjS0_+0x48>
/home/cf/ZCU/first_year/winter/OS/practical/ex3/kernel/src/drivers/gpio.cpp:48 (discriminator 2)
    84b8:	e3a02008 	mov	r2, #8
/home/cf/ZCU/first_year/winter/OS/practical/ex3/kernel/src/drivers/gpio.cpp:48 (discriminator 4)
    84bc:	e51b3010 	ldr	r3, [fp, #-16]
    84c0:	e5832000 	str	r2, [r3]
/home/cf/ZCU/first_year/winter/OS/practical/ex3/kernel/src/drivers/gpio.cpp:49 (discriminator 4)
	bit_idx = pin % 32;
    84c4:	e51b300c 	ldr	r3, [fp, #-12]
    84c8:	e203201f 	and	r2, r3, #31
    84cc:	e51b3014 	ldr	r3, [fp, #-20]	; 0xffffffec
    84d0:	e5832000 	str	r2, [r3]
/home/cf/ZCU/first_year/winter/OS/practical/ex3/kernel/src/drivers/gpio.cpp:51 (discriminator 4)
	
	return true;
    84d4:	e3a03001 	mov	r3, #1
/home/cf/ZCU/first_year/winter/OS/practical/ex3/kernel/src/drivers/gpio.cpp:52
}
    84d8:	e1a00003 	mov	r0, r3
    84dc:	e28bd000 	add	sp, fp, #0
    84e0:	e49db004 	pop	{fp}		; (ldr fp, [sp], #4)
    84e4:	e12fff1e 	bx	lr

000084e8 <_ZNK13CGPIO_Handler18Get_GPLEV_LocationEjRjS0_>:
_ZNK13CGPIO_Handler18Get_GPLEV_LocationEjRjS0_():
/home/cf/ZCU/first_year/winter/OS/practical/ex3/kernel/src/drivers/gpio.cpp:55

bool CGPIO_Handler::Get_GPLEV_Location(uint32_t pin, uint32_t& reg, uint32_t& bit_idx) const
{
    84e8:	e52db004 	push	{fp}		; (str fp, [sp, #-4]!)
    84ec:	e28db000 	add	fp, sp, #0
    84f0:	e24dd014 	sub	sp, sp, #20
    84f4:	e50b0008 	str	r0, [fp, #-8]
    84f8:	e50b100c 	str	r1, [fp, #-12]
    84fc:	e50b2010 	str	r2, [fp, #-16]
    8500:	e50b3014 	str	r3, [fp, #-20]	; 0xffffffec
/home/cf/ZCU/first_year/winter/OS/practical/ex3/kernel/src/drivers/gpio.cpp:56
	if (pin > hal::GPIO_Pin_Count)
    8504:	e51b300c 	ldr	r3, [fp, #-12]
    8508:	e3530036 	cmp	r3, #54	; 0x36
    850c:	9a000001 	bls	8518 <_ZNK13CGPIO_Handler18Get_GPLEV_LocationEjRjS0_+0x30>
/home/cf/ZCU/first_year/winter/OS/practical/ex3/kernel/src/drivers/gpio.cpp:57
		return false;
    8510:	e3a03000 	mov	r3, #0
    8514:	ea00000c 	b	854c <_ZNK13CGPIO_Handler18Get_GPLEV_LocationEjRjS0_+0x64>
/home/cf/ZCU/first_year/winter/OS/practical/ex3/kernel/src/drivers/gpio.cpp:59
	
	reg = static_cast<uint32_t>((pin < 32) ? hal::GPIO_Reg::GPLEV0 : hal::GPIO_Reg::GPLEV1);
    8518:	e51b300c 	ldr	r3, [fp, #-12]
    851c:	e353001f 	cmp	r3, #31
    8520:	8a000001 	bhi	852c <_ZNK13CGPIO_Handler18Get_GPLEV_LocationEjRjS0_+0x44>
/home/cf/ZCU/first_year/winter/OS/practical/ex3/kernel/src/drivers/gpio.cpp:59 (discriminator 1)
    8524:	e3a0200d 	mov	r2, #13
    8528:	ea000000 	b	8530 <_ZNK13CGPIO_Handler18Get_GPLEV_LocationEjRjS0_+0x48>
/home/cf/ZCU/first_year/winter/OS/practical/ex3/kernel/src/drivers/gpio.cpp:59 (discriminator 2)
    852c:	e3a0200e 	mov	r2, #14
/home/cf/ZCU/first_year/winter/OS/practical/ex3/kernel/src/drivers/gpio.cpp:59 (discriminator 4)
    8530:	e51b3010 	ldr	r3, [fp, #-16]
    8534:	e5832000 	str	r2, [r3]
/home/cf/ZCU/first_year/winter/OS/practical/ex3/kernel/src/drivers/gpio.cpp:60 (discriminator 4)
	bit_idx = pin % 32;
    8538:	e51b300c 	ldr	r3, [fp, #-12]
    853c:	e203201f 	and	r2, r3, #31
    8540:	e51b3014 	ldr	r3, [fp, #-20]	; 0xffffffec
    8544:	e5832000 	str	r2, [r3]
/home/cf/ZCU/first_year/winter/OS/practical/ex3/kernel/src/drivers/gpio.cpp:62 (discriminator 4)
	
	return true;
    8548:	e3a03001 	mov	r3, #1
/home/cf/ZCU/first_year/winter/OS/practical/ex3/kernel/src/drivers/gpio.cpp:63
}
    854c:	e1a00003 	mov	r0, r3
    8550:	e28bd000 	add	sp, fp, #0
    8554:	e49db004 	pop	{fp}		; (ldr fp, [sp], #4)
    8558:	e12fff1e 	bx	lr

0000855c <_ZN13CGPIO_Handler17Set_GPIO_FunctionEj14NGPIO_Function>:
_ZN13CGPIO_Handler17Set_GPIO_FunctionEj14NGPIO_Function():
/home/cf/ZCU/first_year/winter/OS/practical/ex3/kernel/src/drivers/gpio.cpp:66
		
void CGPIO_Handler::Set_GPIO_Function(uint32_t pin, NGPIO_Function func)
{
    855c:	e92d4800 	push	{fp, lr}
    8560:	e28db004 	add	fp, sp, #4
    8564:	e24dd018 	sub	sp, sp, #24
    8568:	e50b0010 	str	r0, [fp, #-16]
    856c:	e50b1014 	str	r1, [fp, #-20]	; 0xffffffec
    8570:	e1a03002 	mov	r3, r2
    8574:	e54b3015 	strb	r3, [fp, #-21]	; 0xffffffeb
/home/cf/ZCU/first_year/winter/OS/practical/ex3/kernel/src/drivers/gpio.cpp:68
	uint32_t reg, bit;
	if (Get_GPFSEL_Location(pin, reg, bit))
    8578:	e24b300c 	sub	r3, fp, #12
    857c:	e24b2008 	sub	r2, fp, #8
    8580:	e51b1014 	ldr	r1, [fp, #-20]	; 0xffffffec
    8584:	e51b0010 	ldr	r0, [fp, #-16]
    8588:	ebffff57 	bl	82ec <_ZNK13CGPIO_Handler19Get_GPFSEL_LocationEjRjS0_>
    858c:	e1a03000 	mov	r3, r0
    8590:	e3530000 	cmp	r3, #0
    8594:	1a000015 	bne	85f0 <_ZN13CGPIO_Handler17Set_GPIO_FunctionEj14NGPIO_Function+0x94>
/home/cf/ZCU/first_year/winter/OS/practical/ex3/kernel/src/drivers/gpio.cpp:71
		return;
	
	mGPIO[reg] = (mGPIO[reg] & (~static_cast<unsigned int>(7 << bit)) )
    8598:	e51b3010 	ldr	r3, [fp, #-16]
    859c:	e5932000 	ldr	r2, [r3]
    85a0:	e51b3008 	ldr	r3, [fp, #-8]
    85a4:	e1a03103 	lsl	r3, r3, #2
    85a8:	e0823003 	add	r3, r2, r3
    85ac:	e5932000 	ldr	r2, [r3]
    85b0:	e51b300c 	ldr	r3, [fp, #-12]
    85b4:	e3a01007 	mov	r1, #7
    85b8:	e1a03311 	lsl	r3, r1, r3
    85bc:	e1e03003 	mvn	r3, r3
    85c0:	e0021003 	and	r1, r2, r3
/home/cf/ZCU/first_year/winter/OS/practical/ex3/kernel/src/drivers/gpio.cpp:72
				| (static_cast<unsigned int>(func) << bit);
    85c4:	e55b2015 	ldrb	r2, [fp, #-21]	; 0xffffffeb
    85c8:	e51b300c 	ldr	r3, [fp, #-12]
    85cc:	e1a02312 	lsl	r2, r2, r3
/home/cf/ZCU/first_year/winter/OS/practical/ex3/kernel/src/drivers/gpio.cpp:71
	mGPIO[reg] = (mGPIO[reg] & (~static_cast<unsigned int>(7 << bit)) )
    85d0:	e51b3010 	ldr	r3, [fp, #-16]
    85d4:	e5930000 	ldr	r0, [r3]
    85d8:	e51b3008 	ldr	r3, [fp, #-8]
    85dc:	e1a03103 	lsl	r3, r3, #2
    85e0:	e0803003 	add	r3, r0, r3
/home/cf/ZCU/first_year/winter/OS/practical/ex3/kernel/src/drivers/gpio.cpp:72
				| (static_cast<unsigned int>(func) << bit);
    85e4:	e1812002 	orr	r2, r1, r2
/home/cf/ZCU/first_year/winter/OS/practical/ex3/kernel/src/drivers/gpio.cpp:71
	mGPIO[reg] = (mGPIO[reg] & (~static_cast<unsigned int>(7 << bit)) )
    85e8:	e5832000 	str	r2, [r3]
    85ec:	ea000000 	b	85f4 <_ZN13CGPIO_Handler17Set_GPIO_FunctionEj14NGPIO_Function+0x98>
/home/cf/ZCU/first_year/winter/OS/practical/ex3/kernel/src/drivers/gpio.cpp:69
		return;
    85f0:	e320f000 	nop	{0}
/home/cf/ZCU/first_year/winter/OS/practical/ex3/kernel/src/drivers/gpio.cpp:73
}
    85f4:	e24bd004 	sub	sp, fp, #4
    85f8:	e8bd8800 	pop	{fp, pc}

000085fc <_ZNK13CGPIO_Handler17Get_GPIO_FunctionEj>:
_ZNK13CGPIO_Handler17Get_GPIO_FunctionEj():
/home/cf/ZCU/first_year/winter/OS/practical/ex3/kernel/src/drivers/gpio.cpp:76

NGPIO_Function CGPIO_Handler::Get_GPIO_Function(uint32_t pin) const
{
    85fc:	e92d4800 	push	{fp, lr}
    8600:	e28db004 	add	fp, sp, #4
    8604:	e24dd010 	sub	sp, sp, #16
    8608:	e50b0010 	str	r0, [fp, #-16]
    860c:	e50b1014 	str	r1, [fp, #-20]	; 0xffffffec
/home/cf/ZCU/first_year/winter/OS/practical/ex3/kernel/src/drivers/gpio.cpp:78
	uint32_t reg, bit;
	if (Get_GPFSEL_Location(pin, reg, bit))
    8610:	e24b300c 	sub	r3, fp, #12
    8614:	e24b2008 	sub	r2, fp, #8
    8618:	e51b1014 	ldr	r1, [fp, #-20]	; 0xffffffec
    861c:	e51b0010 	ldr	r0, [fp, #-16]
    8620:	ebffff31 	bl	82ec <_ZNK13CGPIO_Handler19Get_GPFSEL_LocationEjRjS0_>
    8624:	e1a03000 	mov	r3, r0
    8628:	e3530000 	cmp	r3, #0
    862c:	0a000001 	beq	8638 <_ZNK13CGPIO_Handler17Get_GPIO_FunctionEj+0x3c>
/home/cf/ZCU/first_year/winter/OS/practical/ex3/kernel/src/drivers/gpio.cpp:79
		return NGPIO_Function::Unspecified;
    8630:	e3a03008 	mov	r3, #8
    8634:	ea00000a 	b	8664 <_ZNK13CGPIO_Handler17Get_GPIO_FunctionEj+0x68>
/home/cf/ZCU/first_year/winter/OS/practical/ex3/kernel/src/drivers/gpio.cpp:81
	
	return static_cast<NGPIO_Function>((mGPIO[reg] >> bit) & 7);
    8638:	e51b3010 	ldr	r3, [fp, #-16]
    863c:	e5932000 	ldr	r2, [r3]
    8640:	e51b3008 	ldr	r3, [fp, #-8]
    8644:	e1a03103 	lsl	r3, r3, #2
    8648:	e0823003 	add	r3, r2, r3
    864c:	e5932000 	ldr	r2, [r3]
    8650:	e51b300c 	ldr	r3, [fp, #-12]
    8654:	e1a03332 	lsr	r3, r2, r3
    8658:	e6ef3073 	uxtb	r3, r3
    865c:	e2033007 	and	r3, r3, #7
    8660:	e6ef3073 	uxtb	r3, r3
/home/cf/ZCU/first_year/winter/OS/practical/ex3/kernel/src/drivers/gpio.cpp:82 (discriminator 1)
}
    8664:	e1a00003 	mov	r0, r3
    8668:	e24bd004 	sub	sp, fp, #4
    866c:	e8bd8800 	pop	{fp, pc}

00008670 <_ZN13CGPIO_Handler10Set_OutputEjb>:
_ZN13CGPIO_Handler10Set_OutputEjb():
/home/cf/ZCU/first_year/winter/OS/practical/ex3/kernel/src/drivers/gpio.cpp:85

void CGPIO_Handler::Set_Output(uint32_t pin, bool set)
{
    8670:	e92d4800 	push	{fp, lr}
    8674:	e28db004 	add	fp, sp, #4
    8678:	e24dd018 	sub	sp, sp, #24
    867c:	e50b0010 	str	r0, [fp, #-16]
    8680:	e50b1014 	str	r1, [fp, #-20]	; 0xffffffec
    8684:	e1a03002 	mov	r3, r2
    8688:	e54b3015 	strb	r3, [fp, #-21]	; 0xffffffeb
/home/cf/ZCU/first_year/winter/OS/practical/ex3/kernel/src/drivers/gpio.cpp:87
	uint32_t reg, bit;
	if (!(set && Get_GPSET_Location(pin, reg, bit)) && !(!set && Get_GPCLR_Location(pin, reg, bit)))
    868c:	e55b3015 	ldrb	r3, [fp, #-21]	; 0xffffffeb
    8690:	e2233001 	eor	r3, r3, #1
    8694:	e6ef3073 	uxtb	r3, r3
    8698:	e3530000 	cmp	r3, #0
    869c:	1a000009 	bne	86c8 <_ZN13CGPIO_Handler10Set_OutputEjb+0x58>
/home/cf/ZCU/first_year/winter/OS/practical/ex3/kernel/src/drivers/gpio.cpp:87 (discriminator 2)
    86a0:	e24b300c 	sub	r3, fp, #12
    86a4:	e24b2008 	sub	r2, fp, #8
    86a8:	e51b1014 	ldr	r1, [fp, #-20]	; 0xffffffec
    86ac:	e51b0010 	ldr	r0, [fp, #-16]
    86b0:	ebffff6f 	bl	8474 <_ZNK13CGPIO_Handler18Get_GPSET_LocationEjRjS0_>
    86b4:	e1a03000 	mov	r3, r0
    86b8:	e2233001 	eor	r3, r3, #1
    86bc:	e6ef3073 	uxtb	r3, r3
    86c0:	e3530000 	cmp	r3, #0
    86c4:	0a00000e 	beq	8704 <_ZN13CGPIO_Handler10Set_OutputEjb+0x94>
/home/cf/ZCU/first_year/winter/OS/practical/ex3/kernel/src/drivers/gpio.cpp:87 (discriminator 3)
    86c8:	e55b3015 	ldrb	r3, [fp, #-21]	; 0xffffffeb
    86cc:	e3530000 	cmp	r3, #0
    86d0:	1a000009 	bne	86fc <_ZN13CGPIO_Handler10Set_OutputEjb+0x8c>
/home/cf/ZCU/first_year/winter/OS/practical/ex3/kernel/src/drivers/gpio.cpp:87 (discriminator 6)
    86d4:	e24b300c 	sub	r3, fp, #12
    86d8:	e24b2008 	sub	r2, fp, #8
    86dc:	e51b1014 	ldr	r1, [fp, #-20]	; 0xffffffec
    86e0:	e51b0010 	ldr	r0, [fp, #-16]
    86e4:	ebffff45 	bl	8400 <_ZNK13CGPIO_Handler18Get_GPCLR_LocationEjRjS0_>
    86e8:	e1a03000 	mov	r3, r0
    86ec:	e2233001 	eor	r3, r3, #1
    86f0:	e6ef3073 	uxtb	r3, r3
    86f4:	e3530000 	cmp	r3, #0
    86f8:	0a000001 	beq	8704 <_ZN13CGPIO_Handler10Set_OutputEjb+0x94>
/home/cf/ZCU/first_year/winter/OS/practical/ex3/kernel/src/drivers/gpio.cpp:87 (discriminator 7)
    86fc:	e3a03001 	mov	r3, #1
    8700:	ea000000 	b	8708 <_ZN13CGPIO_Handler10Set_OutputEjb+0x98>
/home/cf/ZCU/first_year/winter/OS/practical/ex3/kernel/src/drivers/gpio.cpp:87 (discriminator 8)
    8704:	e3a03000 	mov	r3, #0
/home/cf/ZCU/first_year/winter/OS/practical/ex3/kernel/src/drivers/gpio.cpp:87 (discriminator 10)
    8708:	e3530000 	cmp	r3, #0
    870c:	1a00000a 	bne	873c <_ZN13CGPIO_Handler10Set_OutputEjb+0xcc>
/home/cf/ZCU/first_year/winter/OS/practical/ex3/kernel/src/drivers/gpio.cpp:90
		return;
	
	mGPIO[reg] = (1 << bit);
    8710:	e51b300c 	ldr	r3, [fp, #-12]
    8714:	e3a02001 	mov	r2, #1
    8718:	e1a01312 	lsl	r1, r2, r3
    871c:	e51b3010 	ldr	r3, [fp, #-16]
    8720:	e5932000 	ldr	r2, [r3]
    8724:	e51b3008 	ldr	r3, [fp, #-8]
    8728:	e1a03103 	lsl	r3, r3, #2
    872c:	e0823003 	add	r3, r2, r3
    8730:	e1a02001 	mov	r2, r1
    8734:	e5832000 	str	r2, [r3]
    8738:	ea000000 	b	8740 <_ZN13CGPIO_Handler10Set_OutputEjb+0xd0>
/home/cf/ZCU/first_year/winter/OS/practical/ex3/kernel/src/drivers/gpio.cpp:88
		return;
    873c:	e320f000 	nop	{0}
/home/cf/ZCU/first_year/winter/OS/practical/ex3/kernel/src/drivers/gpio.cpp:91
}
    8740:	e24bd004 	sub	sp, fp, #4
    8744:	e8bd8800 	pop	{fp, pc}

00008748 <_Z41__static_initialization_and_destruction_0ii>:
_Z41__static_initialization_and_destruction_0ii():
/home/cf/ZCU/first_year/winter/OS/practical/ex3/kernel/src/drivers/gpio.cpp:91
    8748:	e92d4800 	push	{fp, lr}
    874c:	e28db004 	add	fp, sp, #4
    8750:	e24dd008 	sub	sp, sp, #8
    8754:	e50b0008 	str	r0, [fp, #-8]
    8758:	e50b100c 	str	r1, [fp, #-12]
    875c:	e51b3008 	ldr	r3, [fp, #-8]
    8760:	e3530001 	cmp	r3, #1
    8764:	1a000006 	bne	8784 <_Z41__static_initialization_and_destruction_0ii+0x3c>
/home/cf/ZCU/first_year/winter/OS/practical/ex3/kernel/src/drivers/gpio.cpp:91 (discriminator 1)
    8768:	e51b300c 	ldr	r3, [fp, #-12]
    876c:	e59f201c 	ldr	r2, [pc, #28]	; 8790 <_Z41__static_initialization_and_destruction_0ii+0x48>
    8770:	e1530002 	cmp	r3, r2
    8774:	1a000002 	bne	8784 <_Z41__static_initialization_and_destruction_0ii+0x3c>
/home/cf/ZCU/first_year/winter/OS/practical/ex3/kernel/src/drivers/gpio.cpp:4
CGPIO_Handler sGPIO(hal::GPIO_Base);
    8778:	e59f1014 	ldr	r1, [pc, #20]	; 8794 <_Z41__static_initialization_and_destruction_0ii+0x4c>
    877c:	e59f0014 	ldr	r0, [pc, #20]	; 8798 <_Z41__static_initialization_and_destruction_0ii+0x50>
    8780:	ebfffecc 	bl	82b8 <_ZN13CGPIO_HandlerC1Ej>
/home/cf/ZCU/first_year/winter/OS/practical/ex3/kernel/src/drivers/gpio.cpp:91
}
    8784:	e320f000 	nop	{0}
    8788:	e24bd004 	sub	sp, fp, #4
    878c:	e8bd8800 	pop	{fp, pc}
    8790:	0000ffff 	strdeq	pc, [r0], -pc	; <UNPREDICTABLE>
    8794:	20200000 	eorcs	r0, r0, r0
    8798:	000097cc 	andeq	r9, r0, ip, asr #15

0000879c <_GLOBAL__sub_I_sGPIO>:
_GLOBAL__sub_I_sGPIO():
/home/cf/ZCU/first_year/winter/OS/practical/ex3/kernel/src/drivers/gpio.cpp:91
    879c:	e92d4800 	push	{fp, lr}
    87a0:	e28db004 	add	fp, sp, #4
    87a4:	e59f1008 	ldr	r1, [pc, #8]	; 87b4 <_GLOBAL__sub_I_sGPIO+0x18>
    87a8:	e3a00001 	mov	r0, #1
    87ac:	ebffffe5 	bl	8748 <_Z41__static_initialization_and_destruction_0ii>
    87b0:	e8bd8800 	pop	{fp, pc}
    87b4:	0000ffff 	strdeq	pc, [r0], -pc	; <UNPREDICTABLE>

000087b8 <_ZN5CUARTC1ER4CAUX>:
_ZN5CUARTC2ER4CAUX():
/home/cf/ZCU/first_year/winter/OS/practical/ex3/kernel/src/drivers/uart.cpp:7
#include <drivers/uart.h>
#include <drivers/bcm_aux.h>

CUART sUART0(sAUX);

CUART::CUART(CAUX& aux)
    87b8:	e92d4800 	push	{fp, lr}
    87bc:	e28db004 	add	fp, sp, #4
    87c0:	e24dd008 	sub	sp, sp, #8
    87c4:	e50b0008 	str	r0, [fp, #-8]
    87c8:	e50b100c 	str	r1, [fp, #-12]
/home/cf/ZCU/first_year/winter/OS/practical/ex3/kernel/src/drivers/uart.cpp:8
    : mAUX(aux)
    87cc:	e51b3008 	ldr	r3, [fp, #-8]
    87d0:	e51b200c 	ldr	r2, [fp, #-12]
    87d4:	e5832000 	str	r2, [r3]
/home/cf/ZCU/first_year/winter/OS/practical/ex3/kernel/src/drivers/uart.cpp:10
{
    mAUX.Enable(hal::AUX_Peripherals::MiniUART);
    87d8:	e51b3008 	ldr	r3, [fp, #-8]
    87dc:	e5933000 	ldr	r3, [r3]
    87e0:	e3a01000 	mov	r1, #0
    87e4:	e1a00003 	mov	r0, r3
    87e8:	ebfffe4d 	bl	8124 <_ZN4CAUX6EnableEN3hal15AUX_PeripheralsE>
/home/cf/ZCU/first_year/winter/OS/practical/ex3/kernel/src/drivers/uart.cpp:12
    //mAUX.Set_Register(hal::AUX_Reg::ENABLES, mAUX.Get_Register(hal::AUX_Reg::ENABLES) | 0x01);
    mAUX.Set_Register(hal::AUX_Reg::MU_IIR, 0);
    87ec:	e51b3008 	ldr	r3, [fp, #-8]
    87f0:	e5933000 	ldr	r3, [r3]
    87f4:	e3a02000 	mov	r2, #0
    87f8:	e3a01012 	mov	r1, #18
    87fc:	e1a00003 	mov	r0, r3
    8800:	ebfffe70 	bl	81c8 <_ZN4CAUX12Set_RegisterEN3hal7AUX_RegEj>
/home/cf/ZCU/first_year/winter/OS/practical/ex3/kernel/src/drivers/uart.cpp:13
    mAUX.Set_Register(hal::AUX_Reg::MU_IER, 0);
    8804:	e51b3008 	ldr	r3, [fp, #-8]
    8808:	e5933000 	ldr	r3, [r3]
    880c:	e3a02000 	mov	r2, #0
    8810:	e3a01011 	mov	r1, #17
    8814:	e1a00003 	mov	r0, r3
    8818:	ebfffe6a 	bl	81c8 <_ZN4CAUX12Set_RegisterEN3hal7AUX_RegEj>
/home/cf/ZCU/first_year/winter/OS/practical/ex3/kernel/src/drivers/uart.cpp:14
    mAUX.Set_Register(hal::AUX_Reg::MU_MCR, 0);
    881c:	e51b3008 	ldr	r3, [fp, #-8]
    8820:	e5933000 	ldr	r3, [r3]
    8824:	e3a02000 	mov	r2, #0
    8828:	e3a01014 	mov	r1, #20
    882c:	e1a00003 	mov	r0, r3
    8830:	ebfffe64 	bl	81c8 <_ZN4CAUX12Set_RegisterEN3hal7AUX_RegEj>
/home/cf/ZCU/first_year/winter/OS/practical/ex3/kernel/src/drivers/uart.cpp:15
    mAUX.Set_Register(hal::AUX_Reg::MU_CNTL, 3); // RX and TX enabled
    8834:	e51b3008 	ldr	r3, [fp, #-8]
    8838:	e5933000 	ldr	r3, [r3]
    883c:	e3a02003 	mov	r2, #3
    8840:	e3a01018 	mov	r1, #24
    8844:	e1a00003 	mov	r0, r3
    8848:	ebfffe5e 	bl	81c8 <_ZN4CAUX12Set_RegisterEN3hal7AUX_RegEj>
/home/cf/ZCU/first_year/winter/OS/practical/ex3/kernel/src/drivers/uart.cpp:16
}
    884c:	e51b3008 	ldr	r3, [fp, #-8]
    8850:	e1a00003 	mov	r0, r3
    8854:	e24bd004 	sub	sp, fp, #4
    8858:	e8bd8800 	pop	{fp, pc}

0000885c <_ZN5CUART15Set_Char_LengthE17NUART_Char_Length>:
_ZN5CUART15Set_Char_LengthE17NUART_Char_Length():
/home/cf/ZCU/first_year/winter/OS/practical/ex3/kernel/src/drivers/uart.cpp:19

void CUART::Set_Char_Length(NUART_Char_Length len)
{
    885c:	e92d4810 	push	{r4, fp, lr}
    8860:	e28db008 	add	fp, sp, #8
    8864:	e24dd00c 	sub	sp, sp, #12
    8868:	e50b0010 	str	r0, [fp, #-16]
    886c:	e50b1014 	str	r1, [fp, #-20]	; 0xffffffec
/home/cf/ZCU/first_year/winter/OS/practical/ex3/kernel/src/drivers/uart.cpp:20
    mAUX.Set_Register(hal::AUX_Reg::MU_LCR, (mAUX.Get_Register(hal::AUX_Reg::MU_LCR) & 0xFFFFFFFE) | static_cast<unsigned int>(len));
    8870:	e51b3010 	ldr	r3, [fp, #-16]
    8874:	e5934000 	ldr	r4, [r3]
    8878:	e51b3010 	ldr	r3, [fp, #-16]
    887c:	e5933000 	ldr	r3, [r3]
    8880:	e3a01013 	mov	r1, #19
    8884:	e1a00003 	mov	r0, r3
    8888:	ebfffe5f 	bl	820c <_ZN4CAUX12Get_RegisterEN3hal7AUX_RegE>
    888c:	e1a03000 	mov	r3, r0
    8890:	e3c32001 	bic	r2, r3, #1
    8894:	e51b3014 	ldr	r3, [fp, #-20]	; 0xffffffec
    8898:	e1823003 	orr	r3, r2, r3
    889c:	e1a02003 	mov	r2, r3
    88a0:	e3a01013 	mov	r1, #19
    88a4:	e1a00004 	mov	r0, r4
    88a8:	ebfffe46 	bl	81c8 <_ZN4CAUX12Set_RegisterEN3hal7AUX_RegEj>
/home/cf/ZCU/first_year/winter/OS/practical/ex3/kernel/src/drivers/uart.cpp:21
}
    88ac:	e320f000 	nop	{0}
    88b0:	e24bd008 	sub	sp, fp, #8
    88b4:	e8bd8810 	pop	{r4, fp, pc}

000088b8 <_ZN5CUART13Set_Baud_RateE15NUART_Baud_Rate>:
_ZN5CUART13Set_Baud_RateE15NUART_Baud_Rate():
/home/cf/ZCU/first_year/winter/OS/practical/ex3/kernel/src/drivers/uart.cpp:24

void CUART::Set_Baud_Rate(NUART_Baud_Rate rate)
{
    88b8:	e92d4800 	push	{fp, lr}
    88bc:	e28db004 	add	fp, sp, #4
    88c0:	e24dd010 	sub	sp, sp, #16
    88c4:	e50b0010 	str	r0, [fp, #-16]
    88c8:	e50b1014 	str	r1, [fp, #-20]	; 0xffffffec
/home/cf/ZCU/first_year/winter/OS/practical/ex3/kernel/src/drivers/uart.cpp:25
    constexpr unsigned int Clock_Rate = 250000000; // taktovaci frekvence hlavniho jadra
    88cc:	e59f3070 	ldr	r3, [pc, #112]	; 8944 <_ZN5CUART13Set_Baud_RateE15NUART_Baud_Rate+0x8c>
    88d0:	e50b3008 	str	r3, [fp, #-8]
/home/cf/ZCU/first_year/winter/OS/practical/ex3/kernel/src/drivers/uart.cpp:26
    const unsigned int val = ((Clock_Rate / static_cast<unsigned int>(rate)) / 8) - 1;
    88d4:	e51b3014 	ldr	r3, [fp, #-20]	; 0xffffffec
    88d8:	e1a01003 	mov	r1, r3
    88dc:	e59f0064 	ldr	r0, [pc, #100]	; 8948 <_ZN5CUART13Set_Baud_RateE15NUART_Baud_Rate+0x90>
    88e0:	eb0001fa 	bl	90d0 <__udivsi3>
    88e4:	e1a03000 	mov	r3, r0
    88e8:	e2433001 	sub	r3, r3, #1
    88ec:	e50b300c 	str	r3, [fp, #-12]
/home/cf/ZCU/first_year/winter/OS/practical/ex3/kernel/src/drivers/uart.cpp:28

    mAUX.Set_Register(hal::AUX_Reg::MU_CNTL, 0);
    88f0:	e51b3010 	ldr	r3, [fp, #-16]
    88f4:	e5933000 	ldr	r3, [r3]
    88f8:	e3a02000 	mov	r2, #0
    88fc:	e3a01018 	mov	r1, #24
    8900:	e1a00003 	mov	r0, r3
    8904:	ebfffe2f 	bl	81c8 <_ZN4CAUX12Set_RegisterEN3hal7AUX_RegEj>
/home/cf/ZCU/first_year/winter/OS/practical/ex3/kernel/src/drivers/uart.cpp:30

    mAUX.Set_Register(hal::AUX_Reg::MU_BAUD, val);
    8908:	e51b3010 	ldr	r3, [fp, #-16]
    890c:	e5933000 	ldr	r3, [r3]
    8910:	e51b200c 	ldr	r2, [fp, #-12]
    8914:	e3a0101a 	mov	r1, #26
    8918:	e1a00003 	mov	r0, r3
    891c:	ebfffe29 	bl	81c8 <_ZN4CAUX12Set_RegisterEN3hal7AUX_RegEj>
/home/cf/ZCU/first_year/winter/OS/practical/ex3/kernel/src/drivers/uart.cpp:32

    mAUX.Set_Register(hal::AUX_Reg::MU_CNTL, 3);
    8920:	e51b3010 	ldr	r3, [fp, #-16]
    8924:	e5933000 	ldr	r3, [r3]
    8928:	e3a02003 	mov	r2, #3
    892c:	e3a01018 	mov	r1, #24
    8930:	e1a00003 	mov	r0, r3
    8934:	ebfffe23 	bl	81c8 <_ZN4CAUX12Set_RegisterEN3hal7AUX_RegEj>
/home/cf/ZCU/first_year/winter/OS/practical/ex3/kernel/src/drivers/uart.cpp:33
}
    8938:	e320f000 	nop	{0}
    893c:	e24bd004 	sub	sp, fp, #4
    8940:	e8bd8800 	pop	{fp, pc}
    8944:	0ee6b280 	cdpeq	2, 14, cr11, cr6, cr0, {4}
    8948:	01dcd650 	bicseq	sp, ip, r0, asr r6

0000894c <_ZN5CUART5WriteEc>:
_ZN5CUART5WriteEc():
/home/cf/ZCU/first_year/winter/OS/practical/ex3/kernel/src/drivers/uart.cpp:36

void CUART::Write(char c)
{
    894c:	e92d4800 	push	{fp, lr}
    8950:	e28db004 	add	fp, sp, #4
    8954:	e24dd008 	sub	sp, sp, #8
    8958:	e50b0008 	str	r0, [fp, #-8]
    895c:	e1a03001 	mov	r3, r1
    8960:	e54b3009 	strb	r3, [fp, #-9]
/home/cf/ZCU/first_year/winter/OS/practical/ex3/kernel/src/drivers/uart.cpp:38
    // dokud ma status registr priznak "vystupni fronta plna", nelze prenaset dalsi bit
    while (!(mAUX.Get_Register(hal::AUX_Reg::MU_LSR) & (1 << 5)))
    8964:	e320f000 	nop	{0}
/home/cf/ZCU/first_year/winter/OS/practical/ex3/kernel/src/drivers/uart.cpp:38 (discriminator 1)
    8968:	e51b3008 	ldr	r3, [fp, #-8]
    896c:	e5933000 	ldr	r3, [r3]
    8970:	e3a01015 	mov	r1, #21
    8974:	e1a00003 	mov	r0, r3
    8978:	ebfffe23 	bl	820c <_ZN4CAUX12Get_RegisterEN3hal7AUX_RegE>
    897c:	e1a03000 	mov	r3, r0
    8980:	e2033020 	and	r3, r3, #32
    8984:	e3530000 	cmp	r3, #0
    8988:	03a03001 	moveq	r3, #1
    898c:	13a03000 	movne	r3, #0
    8990:	e6ef3073 	uxtb	r3, r3
    8994:	e3530000 	cmp	r3, #0
    8998:	1afffff2 	bne	8968 <_ZN5CUART5WriteEc+0x1c>
/home/cf/ZCU/first_year/winter/OS/practical/ex3/kernel/src/drivers/uart.cpp:41
        ;

    mAUX.Set_Register(hal::AUX_Reg::MU_IO, c);
    899c:	e51b3008 	ldr	r3, [fp, #-8]
    89a0:	e5933000 	ldr	r3, [r3]
    89a4:	e55b2009 	ldrb	r2, [fp, #-9]
    89a8:	e3a01010 	mov	r1, #16
    89ac:	e1a00003 	mov	r0, r3
    89b0:	ebfffe04 	bl	81c8 <_ZN4CAUX12Set_RegisterEN3hal7AUX_RegEj>
/home/cf/ZCU/first_year/winter/OS/practical/ex3/kernel/src/drivers/uart.cpp:42
}
    89b4:	e320f000 	nop	{0}
    89b8:	e24bd004 	sub	sp, fp, #4
    89bc:	e8bd8800 	pop	{fp, pc}

000089c0 <_ZN5CUART5WriteEPKc>:
_ZN5CUART5WriteEPKc():
/home/cf/ZCU/first_year/winter/OS/practical/ex3/kernel/src/drivers/uart.cpp:45

void CUART::Write(const char* str)
{
    89c0:	e92d4800 	push	{fp, lr}
    89c4:	e28db004 	add	fp, sp, #4
    89c8:	e24dd010 	sub	sp, sp, #16
    89cc:	e50b0010 	str	r0, [fp, #-16]
    89d0:	e50b1014 	str	r1, [fp, #-20]	; 0xffffffec
/home/cf/ZCU/first_year/winter/OS/practical/ex3/kernel/src/drivers/uart.cpp:48
    int i;

    for (i = 0; str[i] != '\0'; i++)
    89d4:	e3a03000 	mov	r3, #0
    89d8:	e50b3008 	str	r3, [fp, #-8]
    89dc:	ea000009 	b	8a08 <_ZN5CUART5WriteEPKc+0x48>
/home/cf/ZCU/first_year/winter/OS/practical/ex3/kernel/src/drivers/uart.cpp:49 (discriminator 3)
        Write(str[i]);
    89e0:	e51b3008 	ldr	r3, [fp, #-8]
    89e4:	e51b2014 	ldr	r2, [fp, #-20]	; 0xffffffec
    89e8:	e0823003 	add	r3, r2, r3
    89ec:	e5d33000 	ldrb	r3, [r3]
    89f0:	e1a01003 	mov	r1, r3
    89f4:	e51b0010 	ldr	r0, [fp, #-16]
    89f8:	ebffffd3 	bl	894c <_ZN5CUART5WriteEc>
/home/cf/ZCU/first_year/winter/OS/practical/ex3/kernel/src/drivers/uart.cpp:48 (discriminator 3)
    for (i = 0; str[i] != '\0'; i++)
    89fc:	e51b3008 	ldr	r3, [fp, #-8]
    8a00:	e2833001 	add	r3, r3, #1
    8a04:	e50b3008 	str	r3, [fp, #-8]
/home/cf/ZCU/first_year/winter/OS/practical/ex3/kernel/src/drivers/uart.cpp:48 (discriminator 1)
    8a08:	e51b3008 	ldr	r3, [fp, #-8]
    8a0c:	e51b2014 	ldr	r2, [fp, #-20]	; 0xffffffec
    8a10:	e0823003 	add	r3, r2, r3
    8a14:	e5d33000 	ldrb	r3, [r3]
    8a18:	e3530000 	cmp	r3, #0
    8a1c:	1affffef 	bne	89e0 <_ZN5CUART5WriteEPKc+0x20>
/home/cf/ZCU/first_year/winter/OS/practical/ex3/kernel/src/drivers/uart.cpp:50
}
    8a20:	e320f000 	nop	{0}
    8a24:	e320f000 	nop	{0}
    8a28:	e24bd004 	sub	sp, fp, #4
    8a2c:	e8bd8800 	pop	{fp, pc}

00008a30 <_ZN5CUART5StartEv>:
_ZN5CUART5StartEv():
/home/cf/ZCU/first_year/winter/OS/practical/ex3/kernel/src/drivers/uart.cpp:52

void CUART::Start() {
    8a30:	e92d4800 	push	{fp, lr}
    8a34:	e28db004 	add	fp, sp, #4
    8a38:	e24dd008 	sub	sp, sp, #8
    8a3c:	e50b0008 	str	r0, [fp, #-8]
/home/cf/ZCU/first_year/winter/OS/practical/ex3/kernel/src/drivers/uart.cpp:54
    // enable mini UART on AUX coprocessor
    mAUX.Enable(hal::AUX_Peripherals::MiniUART);
    8a40:	e51b3008 	ldr	r3, [fp, #-8]
    8a44:	e5933000 	ldr	r3, [r3]
    8a48:	e3a01000 	mov	r1, #0
    8a4c:	e1a00003 	mov	r0, r3
    8a50:	ebfffdb3 	bl	8124 <_ZN4CAUX6EnableEN3hal15AUX_PeripheralsE>
/home/cf/ZCU/first_year/winter/OS/practical/ex3/kernel/src/drivers/uart.cpp:57
    
    // UART1 is on pins 14 and 15, alternative 5
    sGPIO.Set_GPIO_Function(14, NGPIO_Function::Alt_5);
    8a54:	e3a02002 	mov	r2, #2
    8a58:	e3a0100e 	mov	r1, #14
    8a5c:	e59f0094 	ldr	r0, [pc, #148]	; 8af8 <_ZN5CUART5StartEv+0xc8>
    8a60:	ebfffebd 	bl	855c <_ZN13CGPIO_Handler17Set_GPIO_FunctionEj14NGPIO_Function>
/home/cf/ZCU/first_year/winter/OS/practical/ex3/kernel/src/drivers/uart.cpp:58
    sGPIO.Set_GPIO_Function(15, NGPIO_Function::Alt_5);
    8a64:	e3a02002 	mov	r2, #2
    8a68:	e3a0100f 	mov	r1, #15
    8a6c:	e59f0084 	ldr	r0, [pc, #132]	; 8af8 <_ZN5CUART5StartEv+0xc8>
    8a70:	ebfffeb9 	bl	855c <_ZN13CGPIO_Handler17Set_GPIO_FunctionEj14NGPIO_Function>
/home/cf/ZCU/first_year/winter/OS/practical/ex3/kernel/src/drivers/uart.cpp:61

    // setting UART parameters
    mAUX.Set_Register(hal::AUX_Reg::MU_IIR, 0);
    8a74:	e51b3008 	ldr	r3, [fp, #-8]
    8a78:	e5933000 	ldr	r3, [r3]
    8a7c:	e3a02000 	mov	r2, #0
    8a80:	e3a01012 	mov	r1, #18
    8a84:	e1a00003 	mov	r0, r3
    8a88:	ebfffdce 	bl	81c8 <_ZN4CAUX12Set_RegisterEN3hal7AUX_RegEj>
/home/cf/ZCU/first_year/winter/OS/practical/ex3/kernel/src/drivers/uart.cpp:62
    mAUX.Set_Register(hal::AUX_Reg::MU_IER, 0);
    8a8c:	e51b3008 	ldr	r3, [fp, #-8]
    8a90:	e5933000 	ldr	r3, [r3]
    8a94:	e3a02000 	mov	r2, #0
    8a98:	e3a01011 	mov	r1, #17
    8a9c:	e1a00003 	mov	r0, r3
    8aa0:	ebfffdc8 	bl	81c8 <_ZN4CAUX12Set_RegisterEN3hal7AUX_RegEj>
/home/cf/ZCU/first_year/winter/OS/practical/ex3/kernel/src/drivers/uart.cpp:63
    mAUX.Set_Register(hal::AUX_Reg::MU_MCR, 0);
    8aa4:	e51b3008 	ldr	r3, [fp, #-8]
    8aa8:	e5933000 	ldr	r3, [r3]
    8aac:	e3a02000 	mov	r2, #0
    8ab0:	e3a01014 	mov	r1, #20
    8ab4:	e1a00003 	mov	r0, r3
    8ab8:	ebfffdc2 	bl	81c8 <_ZN4CAUX12Set_RegisterEN3hal7AUX_RegEj>
/home/cf/ZCU/first_year/winter/OS/practical/ex3/kernel/src/drivers/uart.cpp:64
    mAUX.Set_Register(hal::AUX_Reg::MU_CNTL, 3); // RX and TX enabled
    8abc:	e51b3008 	ldr	r3, [fp, #-8]
    8ac0:	e5933000 	ldr	r3, [r3]
    8ac4:	e3a02003 	mov	r2, #3
    8ac8:	e3a01018 	mov	r1, #24
    8acc:	e1a00003 	mov	r0, r3
    8ad0:	ebfffdbc 	bl	81c8 <_ZN4CAUX12Set_RegisterEN3hal7AUX_RegEj>
/home/cf/ZCU/first_year/winter/OS/practical/ex3/kernel/src/drivers/uart.cpp:65
    sUART0.Set_Baud_Rate(NUART_Baud_Rate::BR_115200);
    8ad4:	e59f1020 	ldr	r1, [pc, #32]	; 8afc <_ZN5CUART5StartEv+0xcc>
    8ad8:	e59f0020 	ldr	r0, [pc, #32]	; 8b00 <_ZN5CUART5StartEv+0xd0>
    8adc:	ebffff75 	bl	88b8 <_ZN5CUART13Set_Baud_RateE15NUART_Baud_Rate>
/home/cf/ZCU/first_year/winter/OS/practical/ex3/kernel/src/drivers/uart.cpp:66
	sUART0.Set_Char_Length(NUART_Char_Length::Char_8);
    8ae0:	e3a01001 	mov	r1, #1
    8ae4:	e59f0014 	ldr	r0, [pc, #20]	; 8b00 <_ZN5CUART5StartEv+0xd0>
    8ae8:	ebffff5b 	bl	885c <_ZN5CUART15Set_Char_LengthE17NUART_Char_Length>
/home/cf/ZCU/first_year/winter/OS/practical/ex3/kernel/src/drivers/uart.cpp:71
    // nastavit parametery uart
    // data lenth - LCR, modulacni rychlost - spocitat podle vzorecku (asi Vmod = f / (8 * B + 1), kde B je velikost registru (asi IO?))
    // transmitter enable CTL
    // reciever enable
}
    8aec:	e320f000 	nop	{0}
    8af0:	e24bd004 	sub	sp, fp, #4
    8af4:	e8bd8800 	pop	{fp, pc}
    8af8:	000097cc 	andeq	r9, r0, ip, asr #15
    8afc:	0001c200 	andeq	ip, r1, r0, lsl #4
    8b00:	000097d0 	ldrdeq	r9, [r0], -r0

00008b04 <_ZN5CUART4StopEv>:
_ZN5CUART4StopEv():
/home/cf/ZCU/first_year/winter/OS/practical/ex3/kernel/src/drivers/uart.cpp:73

void CUART::Stop() {
    8b04:	e92d4800 	push	{fp, lr}
    8b08:	e28db004 	add	fp, sp, #4
    8b0c:	e24dd008 	sub	sp, sp, #8
    8b10:	e50b0008 	str	r0, [fp, #-8]
/home/cf/ZCU/first_year/winter/OS/practical/ex3/kernel/src/drivers/uart.cpp:74
    mAUX.Disable(hal::AUX_Peripherals::MiniUART);
    8b14:	e51b3008 	ldr	r3, [fp, #-8]
    8b18:	e5933000 	ldr	r3, [r3]
    8b1c:	e3a01000 	mov	r1, #0
    8b20:	e1a00003 	mov	r0, r3
    8b24:	ebfffd92 	bl	8174 <_ZN4CAUX7DisableEN3hal15AUX_PeripheralsE>
/home/cf/ZCU/first_year/winter/OS/practical/ex3/kernel/src/drivers/uart.cpp:75
}
    8b28:	e320f000 	nop	{0}
    8b2c:	e24bd004 	sub	sp, fp, #4
    8b30:	e8bd8800 	pop	{fp, pc}

00008b34 <_ZN5CUART4ReadEv>:
_ZN5CUART4ReadEv():
/home/cf/ZCU/first_year/winter/OS/practical/ex3/kernel/src/drivers/uart.cpp:78

// impl. write_string(const char *str) -- pozor, nemame std knihovny - tedy zadny strlen ani prevody
char CUART::Read() {
    8b34:	e92d4800 	push	{fp, lr}
    8b38:	e28db004 	add	fp, sp, #4
    8b3c:	e24dd010 	sub	sp, sp, #16
    8b40:	e50b0010 	str	r0, [fp, #-16]
/home/cf/ZCU/first_year/winter/OS/practical/ex3/kernel/src/drivers/uart.cpp:79
    while (!(mAUX.Get_Register(hal::AUX_Reg::MU_LSR) & 0x01))
    8b44:	e320f000 	nop	{0}
/home/cf/ZCU/first_year/winter/OS/practical/ex3/kernel/src/drivers/uart.cpp:79 (discriminator 1)
    8b48:	e51b3010 	ldr	r3, [fp, #-16]
    8b4c:	e5933000 	ldr	r3, [r3]
    8b50:	e3a01015 	mov	r1, #21
    8b54:	e1a00003 	mov	r0, r3
    8b58:	ebfffdab 	bl	820c <_ZN4CAUX12Get_RegisterEN3hal7AUX_RegE>
    8b5c:	e1a03000 	mov	r3, r0
    8b60:	e2033001 	and	r3, r3, #1
    8b64:	e3530000 	cmp	r3, #0
    8b68:	03a03001 	moveq	r3, #1
    8b6c:	13a03000 	movne	r3, #0
    8b70:	e6ef3073 	uxtb	r3, r3
    8b74:	e3530000 	cmp	r3, #0
    8b78:	1afffff2 	bne	8b48 <_ZN5CUART4ReadEv+0x14>
/home/cf/ZCU/first_year/winter/OS/practical/ex3/kernel/src/drivers/uart.cpp:82
        ;

    uint32_t c = mAUX.Get_Register(hal::AUX_Reg::MU_IO);
    8b7c:	e51b3010 	ldr	r3, [fp, #-16]
    8b80:	e5933000 	ldr	r3, [r3]
    8b84:	e3a01010 	mov	r1, #16
    8b88:	e1a00003 	mov	r0, r3
    8b8c:	ebfffd9e 	bl	820c <_ZN4CAUX12Get_RegisterEN3hal7AUX_RegE>
    8b90:	e1a03000 	mov	r3, r0
    8b94:	e50b3008 	str	r3, [fp, #-8]
/home/cf/ZCU/first_year/winter/OS/practical/ex3/kernel/src/drivers/uart.cpp:83
    return (char) c; // this should take LS 8 bits (only LS 8 bits carry value)
    8b98:	e51b3008 	ldr	r3, [fp, #-8]
    8b9c:	e6ef3073 	uxtb	r3, r3
/home/cf/ZCU/first_year/winter/OS/practical/ex3/kernel/src/drivers/uart.cpp:84
    8ba0:	e1a00003 	mov	r0, r3
    8ba4:	e24bd004 	sub	sp, fp, #4
    8ba8:	e8bd8800 	pop	{fp, pc}

00008bac <_Z41__static_initialization_and_destruction_0ii>:
_Z41__static_initialization_and_destruction_0ii():
/home/cf/ZCU/first_year/winter/OS/practical/ex3/kernel/src/drivers/uart.cpp:84
    8bac:	e92d4800 	push	{fp, lr}
    8bb0:	e28db004 	add	fp, sp, #4
    8bb4:	e24dd008 	sub	sp, sp, #8
    8bb8:	e50b0008 	str	r0, [fp, #-8]
    8bbc:	e50b100c 	str	r1, [fp, #-12]
    8bc0:	e51b3008 	ldr	r3, [fp, #-8]
    8bc4:	e3530001 	cmp	r3, #1
    8bc8:	1a000006 	bne	8be8 <_Z41__static_initialization_and_destruction_0ii+0x3c>
/home/cf/ZCU/first_year/winter/OS/practical/ex3/kernel/src/drivers/uart.cpp:84 (discriminator 1)
    8bcc:	e51b300c 	ldr	r3, [fp, #-12]
    8bd0:	e59f201c 	ldr	r2, [pc, #28]	; 8bf4 <_Z41__static_initialization_and_destruction_0ii+0x48>
    8bd4:	e1530002 	cmp	r3, r2
    8bd8:	1a000002 	bne	8be8 <_Z41__static_initialization_and_destruction_0ii+0x3c>
/home/cf/ZCU/first_year/winter/OS/practical/ex3/kernel/src/drivers/uart.cpp:5
CUART sUART0(sAUX);
    8bdc:	e59f1014 	ldr	r1, [pc, #20]	; 8bf8 <_Z41__static_initialization_and_destruction_0ii+0x4c>
    8be0:	e59f0014 	ldr	r0, [pc, #20]	; 8bfc <_Z41__static_initialization_and_destruction_0ii+0x50>
    8be4:	ebfffef3 	bl	87b8 <_ZN5CUARTC1ER4CAUX>
/home/cf/ZCU/first_year/winter/OS/practical/ex3/kernel/src/drivers/uart.cpp:84
    8be8:	e320f000 	nop	{0}
    8bec:	e24bd004 	sub	sp, fp, #4
    8bf0:	e8bd8800 	pop	{fp, pc}
    8bf4:	0000ffff 	strdeq	pc, [r0], -pc	; <UNPREDICTABLE>
    8bf8:	000097c8 	andeq	r9, r0, r8, asr #15
    8bfc:	000097d0 	ldrdeq	r9, [r0], -r0

00008c00 <_GLOBAL__sub_I_sUART0>:
_GLOBAL__sub_I_sUART0():
/home/cf/ZCU/first_year/winter/OS/practical/ex3/kernel/src/drivers/uart.cpp:84
    8c00:	e92d4800 	push	{fp, lr}
    8c04:	e28db004 	add	fp, sp, #4
    8c08:	e59f1008 	ldr	r1, [pc, #8]	; 8c18 <_GLOBAL__sub_I_sUART0+0x18>
    8c0c:	e3a00001 	mov	r0, #1
    8c10:	ebffffe5 	bl	8bac <_Z41__static_initialization_and_destruction_0ii>
    8c14:	e8bd8800 	pop	{fp, pc}
    8c18:	0000ffff 	strdeq	pc, [r0], -pc	; <UNPREDICTABLE>

00008c1c <_Z9burn_timei>:
_Z9burn_timei():
/home/cf/ZCU/first_year/winter/OS/practical/ex3/kernel/src/main.cpp:7
#include <drivers/uart.h>

// GPIO pin 47 je pripojeny na LED na desce (tzv. ACT LED)
constexpr uint32_t ACT_Pin = 47;

void burn_time(int time) {
    8c1c:	e52db004 	push	{fp}		; (str fp, [sp, #-4]!)
    8c20:	e28db000 	add	fp, sp, #0
    8c24:	e24dd014 	sub	sp, sp, #20
    8c28:	e50b0010 	str	r0, [fp, #-16]
/home/cf/ZCU/first_year/winter/OS/practical/ex3/kernel/src/main.cpp:9
	volatile unsigned int tim;
	for(tim = 0; tim < time; tim++)
    8c2c:	e3a03000 	mov	r3, #0
    8c30:	e50b3008 	str	r3, [fp, #-8]
    8c34:	ea000002 	b	8c44 <_Z9burn_timei+0x28>
/home/cf/ZCU/first_year/winter/OS/practical/ex3/kernel/src/main.cpp:9 (discriminator 3)
    8c38:	e51b3008 	ldr	r3, [fp, #-8]
    8c3c:	e2833001 	add	r3, r3, #1
    8c40:	e50b3008 	str	r3, [fp, #-8]
/home/cf/ZCU/first_year/winter/OS/practical/ex3/kernel/src/main.cpp:9 (discriminator 1)
    8c44:	e51b2008 	ldr	r2, [fp, #-8]
    8c48:	e51b3010 	ldr	r3, [fp, #-16]
    8c4c:	e1520003 	cmp	r2, r3
    8c50:	33a03001 	movcc	r3, #1
    8c54:	23a03000 	movcs	r3, #0
    8c58:	e6ef3073 	uxtb	r3, r3
    8c5c:	e3530000 	cmp	r3, #0
    8c60:	1afffff4 	bne	8c38 <_Z9burn_timei+0x1c>
/home/cf/ZCU/first_year/winter/OS/practical/ex3/kernel/src/main.cpp:11
		;
}
    8c64:	e320f000 	nop	{0}
    8c68:	e320f000 	nop	{0}
    8c6c:	e28bd000 	add	sp, fp, #0
    8c70:	e49db004 	pop	{fp}		; (ldr fp, [sp], #4)
    8c74:	e12fff1e 	bx	lr

00008c78 <_Z7reversePci>:
_Z7reversePci():
/home/cf/ZCU/first_year/winter/OS/practical/ex3/kernel/src/main.cpp:15

/* A utility function to reverse a string  */
void reverse(char str[], int length)
{
    8c78:	e52db004 	push	{fp}		; (str fp, [sp, #-4]!)
    8c7c:	e28db000 	add	fp, sp, #0
    8c80:	e24dd01c 	sub	sp, sp, #28
    8c84:	e50b0018 	str	r0, [fp, #-24]	; 0xffffffe8
    8c88:	e50b101c 	str	r1, [fp, #-28]	; 0xffffffe4
/home/cf/ZCU/first_year/winter/OS/practical/ex3/kernel/src/main.cpp:16
    int start = 0;
    8c8c:	e3a03000 	mov	r3, #0
    8c90:	e50b3008 	str	r3, [fp, #-8]
/home/cf/ZCU/first_year/winter/OS/practical/ex3/kernel/src/main.cpp:17
    int end = length -1;
    8c94:	e51b301c 	ldr	r3, [fp, #-28]	; 0xffffffe4
    8c98:	e2433001 	sub	r3, r3, #1
    8c9c:	e50b300c 	str	r3, [fp, #-12]
/home/cf/ZCU/first_year/winter/OS/practical/ex3/kernel/src/main.cpp:18
    while (start < end)
    8ca0:	ea000018 	b	8d08 <_Z7reversePci+0x90>
/home/cf/ZCU/first_year/winter/OS/practical/ex3/kernel/src/main.cpp:21
    {
        // swap(*(str+start), *(str+end));
		int tmp = *(str+start);
    8ca4:	e51b3008 	ldr	r3, [fp, #-8]
    8ca8:	e51b2018 	ldr	r2, [fp, #-24]	; 0xffffffe8
    8cac:	e0823003 	add	r3, r2, r3
    8cb0:	e5d33000 	ldrb	r3, [r3]
    8cb4:	e50b3010 	str	r3, [fp, #-16]
/home/cf/ZCU/first_year/winter/OS/practical/ex3/kernel/src/main.cpp:22
		*(str+start) = *(str+end);
    8cb8:	e51b300c 	ldr	r3, [fp, #-12]
    8cbc:	e51b2018 	ldr	r2, [fp, #-24]	; 0xffffffe8
    8cc0:	e0822003 	add	r2, r2, r3
    8cc4:	e51b3008 	ldr	r3, [fp, #-8]
    8cc8:	e51b1018 	ldr	r1, [fp, #-24]	; 0xffffffe8
    8ccc:	e0813003 	add	r3, r1, r3
    8cd0:	e5d22000 	ldrb	r2, [r2]
    8cd4:	e5c32000 	strb	r2, [r3]
/home/cf/ZCU/first_year/winter/OS/practical/ex3/kernel/src/main.cpp:23
		*(str+end) = tmp;
    8cd8:	e51b300c 	ldr	r3, [fp, #-12]
    8cdc:	e51b2018 	ldr	r2, [fp, #-24]	; 0xffffffe8
    8ce0:	e0823003 	add	r3, r2, r3
    8ce4:	e51b2010 	ldr	r2, [fp, #-16]
    8ce8:	e6ef2072 	uxtb	r2, r2
    8cec:	e5c32000 	strb	r2, [r3]
/home/cf/ZCU/first_year/winter/OS/practical/ex3/kernel/src/main.cpp:24
        start++;
    8cf0:	e51b3008 	ldr	r3, [fp, #-8]
    8cf4:	e2833001 	add	r3, r3, #1
    8cf8:	e50b3008 	str	r3, [fp, #-8]
/home/cf/ZCU/first_year/winter/OS/practical/ex3/kernel/src/main.cpp:25
        end--;
    8cfc:	e51b300c 	ldr	r3, [fp, #-12]
    8d00:	e2433001 	sub	r3, r3, #1
    8d04:	e50b300c 	str	r3, [fp, #-12]
/home/cf/ZCU/first_year/winter/OS/practical/ex3/kernel/src/main.cpp:18
    while (start < end)
    8d08:	e51b2008 	ldr	r2, [fp, #-8]
    8d0c:	e51b300c 	ldr	r3, [fp, #-12]
    8d10:	e1520003 	cmp	r2, r3
    8d14:	baffffe2 	blt	8ca4 <_Z7reversePci+0x2c>
/home/cf/ZCU/first_year/winter/OS/practical/ex3/kernel/src/main.cpp:27
    }
}
    8d18:	e320f000 	nop	{0}
    8d1c:	e320f000 	nop	{0}
    8d20:	e28bd000 	add	sp, fp, #0
    8d24:	e49db004 	pop	{fp}		; (ldr fp, [sp], #4)
    8d28:	e12fff1e 	bx	lr

00008d2c <_Z4itoaiPci>:
_Z4itoaiPci():
/home/cf/ZCU/first_year/winter/OS/practical/ex3/kernel/src/main.cpp:31
 
// Implementation of itoa()
char* itoa(int num, char* str, int base)
{
    8d2c:	e92d4800 	push	{fp, lr}
    8d30:	e28db004 	add	fp, sp, #4
    8d34:	e24dd020 	sub	sp, sp, #32
    8d38:	e50b0018 	str	r0, [fp, #-24]	; 0xffffffe8
    8d3c:	e50b101c 	str	r1, [fp, #-28]	; 0xffffffe4
    8d40:	e50b2020 	str	r2, [fp, #-32]	; 0xffffffe0
/home/cf/ZCU/first_year/winter/OS/practical/ex3/kernel/src/main.cpp:32
    int i = 0;
    8d44:	e3a03000 	mov	r3, #0
    8d48:	e50b3008 	str	r3, [fp, #-8]
/home/cf/ZCU/first_year/winter/OS/practical/ex3/kernel/src/main.cpp:33
    bool isNegative = false;
    8d4c:	e3a03000 	mov	r3, #0
    8d50:	e54b3009 	strb	r3, [fp, #-9]
/home/cf/ZCU/first_year/winter/OS/practical/ex3/kernel/src/main.cpp:36
 
    /* Handle 0 explicitly, otherwise empty string is printed for 0 */
    if (num == 0)
    8d54:	e51b3018 	ldr	r3, [fp, #-24]	; 0xffffffe8
    8d58:	e3530000 	cmp	r3, #0
    8d5c:	1a00000d 	bne	8d98 <_Z4itoaiPci+0x6c>
/home/cf/ZCU/first_year/winter/OS/practical/ex3/kernel/src/main.cpp:38
    {
        str[i++] = '0';
    8d60:	e51b201c 	ldr	r2, [fp, #-28]	; 0xffffffe4
    8d64:	e51b3008 	ldr	r3, [fp, #-8]
    8d68:	e2831001 	add	r1, r3, #1
    8d6c:	e50b1008 	str	r1, [fp, #-8]
    8d70:	e0823003 	add	r3, r2, r3
    8d74:	e3a02030 	mov	r2, #48	; 0x30
    8d78:	e5c32000 	strb	r2, [r3]
/home/cf/ZCU/first_year/winter/OS/practical/ex3/kernel/src/main.cpp:39
        str[i] = '\0';
    8d7c:	e51b3008 	ldr	r3, [fp, #-8]
    8d80:	e51b201c 	ldr	r2, [fp, #-28]	; 0xffffffe4
    8d84:	e0823003 	add	r3, r2, r3
    8d88:	e3a02000 	mov	r2, #0
    8d8c:	e5c32000 	strb	r2, [r3]
/home/cf/ZCU/first_year/winter/OS/practical/ex3/kernel/src/main.cpp:40
        return str;
    8d90:	e51b301c 	ldr	r3, [fp, #-28]	; 0xffffffe4
    8d94:	ea00003e 	b	8e94 <_Z4itoaiPci+0x168>
/home/cf/ZCU/first_year/winter/OS/practical/ex3/kernel/src/main.cpp:45
    }
 
    // In standard itoa(), negative numbers are handled only with
    // base 10. Otherwise numbers are considered unsigned.
    if (num < 0 && base == 10)
    8d98:	e51b3018 	ldr	r3, [fp, #-24]	; 0xffffffe8
    8d9c:	e3530000 	cmp	r3, #0
    8da0:	aa000025 	bge	8e3c <_Z4itoaiPci+0x110>
/home/cf/ZCU/first_year/winter/OS/practical/ex3/kernel/src/main.cpp:45 (discriminator 1)
    8da4:	e51b3020 	ldr	r3, [fp, #-32]	; 0xffffffe0
    8da8:	e353000a 	cmp	r3, #10
    8dac:	1a000022 	bne	8e3c <_Z4itoaiPci+0x110>
/home/cf/ZCU/first_year/winter/OS/practical/ex3/kernel/src/main.cpp:47
    {
        isNegative = true;
    8db0:	e3a03001 	mov	r3, #1
    8db4:	e54b3009 	strb	r3, [fp, #-9]
/home/cf/ZCU/first_year/winter/OS/practical/ex3/kernel/src/main.cpp:48
        num = -num;
    8db8:	e51b3018 	ldr	r3, [fp, #-24]	; 0xffffffe8
    8dbc:	e2633000 	rsb	r3, r3, #0
    8dc0:	e50b3018 	str	r3, [fp, #-24]	; 0xffffffe8
/home/cf/ZCU/first_year/winter/OS/practical/ex3/kernel/src/main.cpp:52
    }
 
    // Process individual digits
    while (num != 0)
    8dc4:	ea00001c 	b	8e3c <_Z4itoaiPci+0x110>
/home/cf/ZCU/first_year/winter/OS/practical/ex3/kernel/src/main.cpp:54
    {
        int rem = num % base;
    8dc8:	e51b3018 	ldr	r3, [fp, #-24]	; 0xffffffe8
    8dcc:	e51b1020 	ldr	r1, [fp, #-32]	; 0xffffffe0
    8dd0:	e1a00003 	mov	r0, r3
    8dd4:	eb0001c8 	bl	94fc <__aeabi_idivmod>
    8dd8:	e1a03001 	mov	r3, r1
    8ddc:	e50b3010 	str	r3, [fp, #-16]
/home/cf/ZCU/first_year/winter/OS/practical/ex3/kernel/src/main.cpp:55
        str[i++] = (rem > 9)? (rem-10) + 'a' : rem + '0';
    8de0:	e51b3010 	ldr	r3, [fp, #-16]
    8de4:	e3530009 	cmp	r3, #9
    8de8:	da000004 	ble	8e00 <_Z4itoaiPci+0xd4>
/home/cf/ZCU/first_year/winter/OS/practical/ex3/kernel/src/main.cpp:55 (discriminator 1)
    8dec:	e51b3010 	ldr	r3, [fp, #-16]
    8df0:	e6ef3073 	uxtb	r3, r3
    8df4:	e2833057 	add	r3, r3, #87	; 0x57
    8df8:	e6ef3073 	uxtb	r3, r3
    8dfc:	ea000003 	b	8e10 <_Z4itoaiPci+0xe4>
/home/cf/ZCU/first_year/winter/OS/practical/ex3/kernel/src/main.cpp:55 (discriminator 2)
    8e00:	e51b3010 	ldr	r3, [fp, #-16]
    8e04:	e6ef3073 	uxtb	r3, r3
    8e08:	e2833030 	add	r3, r3, #48	; 0x30
    8e0c:	e6ef3073 	uxtb	r3, r3
/home/cf/ZCU/first_year/winter/OS/practical/ex3/kernel/src/main.cpp:55 (discriminator 4)
    8e10:	e51b101c 	ldr	r1, [fp, #-28]	; 0xffffffe4
    8e14:	e51b2008 	ldr	r2, [fp, #-8]
    8e18:	e2820001 	add	r0, r2, #1
    8e1c:	e50b0008 	str	r0, [fp, #-8]
    8e20:	e0812002 	add	r2, r1, r2
    8e24:	e5c23000 	strb	r3, [r2]
/home/cf/ZCU/first_year/winter/OS/practical/ex3/kernel/src/main.cpp:56 (discriminator 4)
        num = num/base;
    8e28:	e51b1020 	ldr	r1, [fp, #-32]	; 0xffffffe0
    8e2c:	e51b0018 	ldr	r0, [fp, #-24]	; 0xffffffe8
    8e30:	eb000129 	bl	92dc <__divsi3>
    8e34:	e1a03000 	mov	r3, r0
    8e38:	e50b3018 	str	r3, [fp, #-24]	; 0xffffffe8
/home/cf/ZCU/first_year/winter/OS/practical/ex3/kernel/src/main.cpp:52
    while (num != 0)
    8e3c:	e51b3018 	ldr	r3, [fp, #-24]	; 0xffffffe8
    8e40:	e3530000 	cmp	r3, #0
    8e44:	1affffdf 	bne	8dc8 <_Z4itoaiPci+0x9c>
/home/cf/ZCU/first_year/winter/OS/practical/ex3/kernel/src/main.cpp:60
    }
 
    // If number is negative, append '-'
    if (isNegative)
    8e48:	e55b3009 	ldrb	r3, [fp, #-9]
    8e4c:	e3530000 	cmp	r3, #0
    8e50:	0a000006 	beq	8e70 <_Z4itoaiPci+0x144>
/home/cf/ZCU/first_year/winter/OS/practical/ex3/kernel/src/main.cpp:61
        str[i++] = '-';
    8e54:	e51b201c 	ldr	r2, [fp, #-28]	; 0xffffffe4
    8e58:	e51b3008 	ldr	r3, [fp, #-8]
    8e5c:	e2831001 	add	r1, r3, #1
    8e60:	e50b1008 	str	r1, [fp, #-8]
    8e64:	e0823003 	add	r3, r2, r3
    8e68:	e3a0202d 	mov	r2, #45	; 0x2d
    8e6c:	e5c32000 	strb	r2, [r3]
/home/cf/ZCU/first_year/winter/OS/practical/ex3/kernel/src/main.cpp:63
 
    str[i] = '\0'; // Append string terminator
    8e70:	e51b3008 	ldr	r3, [fp, #-8]
    8e74:	e51b201c 	ldr	r2, [fp, #-28]	; 0xffffffe4
    8e78:	e0823003 	add	r3, r2, r3
    8e7c:	e3a02000 	mov	r2, #0
    8e80:	e5c32000 	strb	r2, [r3]
/home/cf/ZCU/first_year/winter/OS/practical/ex3/kernel/src/main.cpp:66
 
    // Reverse the string
    reverse(str, i);
    8e84:	e51b1008 	ldr	r1, [fp, #-8]
    8e88:	e51b001c 	ldr	r0, [fp, #-28]	; 0xffffffe4
    8e8c:	ebffff79 	bl	8c78 <_Z7reversePci>
/home/cf/ZCU/first_year/winter/OS/practical/ex3/kernel/src/main.cpp:68
 
    return str;
    8e90:	e51b301c 	ldr	r3, [fp, #-28]	; 0xffffffe4
/home/cf/ZCU/first_year/winter/OS/practical/ex3/kernel/src/main.cpp:69
}
    8e94:	e1a00003 	mov	r0, r3
    8e98:	e24bd004 	sub	sp, fp, #4
    8e9c:	e8bd8800 	pop	{fp, pc}

00008ea0 <_kernel_main>:
_kernel_main():
/home/cf/ZCU/first_year/winter/OS/practical/ex3/kernel/src/main.cpp:72

extern "C" int _kernel_main(void)
{
    8ea0:	e92d4800 	push	{fp, lr}
    8ea4:	e28db004 	add	fp, sp, #4
    8ea8:	e24dd048 	sub	sp, sp, #72	; 0x48
/home/cf/ZCU/first_year/winter/OS/practical/ex3/kernel/src/main.cpp:74
	// nastavime ACT LED pin na vystupni
	sGPIO.Set_GPIO_Function(ACT_Pin, NGPIO_Function::Output);
    8eac:	e3a02001 	mov	r2, #1
    8eb0:	e3a0102f 	mov	r1, #47	; 0x2f
    8eb4:	e59f00dc 	ldr	r0, [pc, #220]	; 8f98 <_kernel_main+0xf8>
    8eb8:	ebfffda7 	bl	855c <_ZN13CGPIO_Handler17Set_GPIO_FunctionEj14NGPIO_Function>
/home/cf/ZCU/first_year/winter/OS/practical/ex3/kernel/src/main.cpp:77

	// inicializujeme UART kanal 0
	sUART0.Set_Baud_Rate(NUART_Baud_Rate::BR_115200);
    8ebc:	e59f10d8 	ldr	r1, [pc, #216]	; 8f9c <_kernel_main+0xfc>
    8ec0:	e59f00d8 	ldr	r0, [pc, #216]	; 8fa0 <_kernel_main+0x100>
    8ec4:	ebfffe7b 	bl	88b8 <_ZN5CUART13Set_Baud_RateE15NUART_Baud_Rate>
/home/cf/ZCU/first_year/winter/OS/practical/ex3/kernel/src/main.cpp:78
	sUART0.Set_Char_Length(NUART_Char_Length::Char_8);
    8ec8:	e3a01001 	mov	r1, #1
    8ecc:	e59f00cc 	ldr	r0, [pc, #204]	; 8fa0 <_kernel_main+0x100>
    8ed0:	ebfffe61 	bl	885c <_ZN5CUART15Set_Char_LengthE17NUART_Char_Length>
/home/cf/ZCU/first_year/winter/OS/practical/ex3/kernel/src/main.cpp:79
	sUART0.Start();
    8ed4:	e59f00c4 	ldr	r0, [pc, #196]	; 8fa0 <_kernel_main+0x100>
    8ed8:	ebfffed4 	bl	8a30 <_ZN5CUART5StartEv>
/home/cf/ZCU/first_year/winter/OS/practical/ex3/kernel/src/main.cpp:82

	// vypiseme ladici hlasku
	sUART0.Write("Welcome to KIV/OS RPiOS kernel\r\n");
    8edc:	e59f10c0 	ldr	r1, [pc, #192]	; 8fa4 <_kernel_main+0x104>
    8ee0:	e59f00b8 	ldr	r0, [pc, #184]	; 8fa0 <_kernel_main+0x100>
    8ee4:	ebfffeb5 	bl	89c0 <_ZN5CUART5WriteEPKc>
/home/cf/ZCU/first_year/winter/OS/practical/ex3/kernel/src/main.cpp:86
	
    while (1)
    {
		burn_time(500000);
    8ee8:	e59f00b8 	ldr	r0, [pc, #184]	; 8fa8 <_kernel_main+0x108>
    8eec:	ebffff4a 	bl	8c1c <_Z9burn_timei>
/home/cf/ZCU/first_year/winter/OS/practical/ex3/kernel/src/main.cpp:87
		sUART0.Write("Cislo je: ");
    8ef0:	e59f10b4 	ldr	r1, [pc, #180]	; 8fac <_kernel_main+0x10c>
    8ef4:	e59f00a4 	ldr	r0, [pc, #164]	; 8fa0 <_kernel_main+0x100>
    8ef8:	ebfffeb0 	bl	89c0 <_ZN5CUART5WriteEPKc>
/home/cf/ZCU/first_year/winter/OS/practical/ex3/kernel/src/main.cpp:89

		int a = 15;
    8efc:	e3a0300f 	mov	r3, #15
    8f00:	e50b3008 	str	r3, [fp, #-8]
/home/cf/ZCU/first_year/winter/OS/practical/ex3/kernel/src/main.cpp:90
		char buf[64] = {0};
    8f04:	e3a03000 	mov	r3, #0
    8f08:	e50b304c 	str	r3, [fp, #-76]	; 0xffffffb4
    8f0c:	e24b3048 	sub	r3, fp, #72	; 0x48
    8f10:	e3a0203c 	mov	r2, #60	; 0x3c
    8f14:	e3a01000 	mov	r1, #0
    8f18:	e1a00003 	mov	r0, r3
    8f1c:	eb00017f 	bl	9520 <memset>
/home/cf/ZCU/first_year/winter/OS/practical/ex3/kernel/src/main.cpp:91
		itoa(a, buf, 10);
    8f20:	e24b304c 	sub	r3, fp, #76	; 0x4c
    8f24:	e3a0200a 	mov	r2, #10
    8f28:	e1a01003 	mov	r1, r3
    8f2c:	e51b0008 	ldr	r0, [fp, #-8]
    8f30:	ebffff7d 	bl	8d2c <_Z4itoaiPci>
/home/cf/ZCU/first_year/winter/OS/practical/ex3/kernel/src/main.cpp:92
		sUART0.Write(buf);
    8f34:	e24b304c 	sub	r3, fp, #76	; 0x4c
    8f38:	e1a01003 	mov	r1, r3
    8f3c:	e59f005c 	ldr	r0, [pc, #92]	; 8fa0 <_kernel_main+0x100>
    8f40:	ebfffe9e 	bl	89c0 <_ZN5CUART5WriteEPKc>
/home/cf/ZCU/first_year/winter/OS/practical/ex3/kernel/src/main.cpp:93
		sUART0.Write("\r\n");
    8f44:	e59f1064 	ldr	r1, [pc, #100]	; 8fb0 <_kernel_main+0x110>
    8f48:	e59f0050 	ldr	r0, [pc, #80]	; 8fa0 <_kernel_main+0x100>
    8f4c:	ebfffe9b 	bl	89c0 <_ZN5CUART5WriteEPKc>
/home/cf/ZCU/first_year/winter/OS/practical/ex3/kernel/src/main.cpp:94
		sUART0.Write("Zadej znak: ");
    8f50:	e59f105c 	ldr	r1, [pc, #92]	; 8fb4 <_kernel_main+0x114>
    8f54:	e59f0044 	ldr	r0, [pc, #68]	; 8fa0 <_kernel_main+0x100>
    8f58:	ebfffe98 	bl	89c0 <_ZN5CUART5WriteEPKc>
/home/cf/ZCU/first_year/winter/OS/practical/ex3/kernel/src/main.cpp:97
		
		char c;
		c = sUART0.Read();
    8f5c:	e59f003c 	ldr	r0, [pc, #60]	; 8fa0 <_kernel_main+0x100>
    8f60:	ebfffef3 	bl	8b34 <_ZN5CUART4ReadEv>
    8f64:	e1a03000 	mov	r3, r0
    8f68:	e54b3009 	strb	r3, [fp, #-9]
/home/cf/ZCU/first_year/winter/OS/practical/ex3/kernel/src/main.cpp:99

		sUART0.Write(++c);
    8f6c:	e55b3009 	ldrb	r3, [fp, #-9]
    8f70:	e2833001 	add	r3, r3, #1
    8f74:	e54b3009 	strb	r3, [fp, #-9]
    8f78:	e55b3009 	ldrb	r3, [fp, #-9]
    8f7c:	e1a01003 	mov	r1, r3
    8f80:	e59f0018 	ldr	r0, [pc, #24]	; 8fa0 <_kernel_main+0x100>
    8f84:	ebfffe70 	bl	894c <_ZN5CUART5WriteEc>
/home/cf/ZCU/first_year/winter/OS/practical/ex3/kernel/src/main.cpp:100
		sUART0.Write("\r\n");
    8f88:	e59f1020 	ldr	r1, [pc, #32]	; 8fb0 <_kernel_main+0x110>
    8f8c:	e59f000c 	ldr	r0, [pc, #12]	; 8fa0 <_kernel_main+0x100>
    8f90:	ebfffe8a 	bl	89c0 <_ZN5CUART5WriteEPKc>
/home/cf/ZCU/first_year/winter/OS/practical/ex3/kernel/src/main.cpp:117
        // for(tim = 0; tim < 500000; tim++)
        //     ;

		// // rozsvitime LED
		// sGPIO.Set_Output(ACT_Pin, false);
    }
    8f94:	eaffffd3 	b	8ee8 <_kernel_main+0x48>
    8f98:	000097cc 	andeq	r9, r0, ip, asr #15
    8f9c:	0001c200 	andeq	ip, r1, r0, lsl #4
    8fa0:	000097d0 	ldrdeq	r9, [r0], -r0
    8fa4:	00009778 	andeq	r9, r0, r8, ror r7
    8fa8:	0007a120 	andeq	sl, r7, r0, lsr #2
    8fac:	0000979c 	muleq	r0, ip, r7
    8fb0:	000097a8 	andeq	r9, r0, r8, lsr #15
    8fb4:	000097ac 	andeq	r9, r0, ip, lsr #15

00008fb8 <_c_startup>:
_c_startup():
/home/cf/ZCU/first_year/winter/OS/practical/ex3/kernel/src/startup.cpp:21
extern "C" dtor_ptr __DTOR_LIST__[0];
// konec pole destruktoru
extern "C" dtor_ptr __DTOR_END__[0];

extern "C" int _c_startup(void)
{
    8fb8:	e52db004 	push	{fp}		; (str fp, [sp, #-4]!)
    8fbc:	e28db000 	add	fp, sp, #0
    8fc0:	e24dd00c 	sub	sp, sp, #12
/home/cf/ZCU/first_year/winter/OS/practical/ex3/kernel/src/startup.cpp:25
	int* i;
	
	// vynulujeme .bss sekci
	for (i = (int*)_bss_start; i < (int*)_bss_end; i++)
    8fc4:	e59f304c 	ldr	r3, [pc, #76]	; 9018 <_c_startup+0x60>
    8fc8:	e5933000 	ldr	r3, [r3]
    8fcc:	e50b3008 	str	r3, [fp, #-8]
    8fd0:	ea000005 	b	8fec <_c_startup+0x34>
/home/cf/ZCU/first_year/winter/OS/practical/ex3/kernel/src/startup.cpp:26 (discriminator 3)
		*i = 0;
    8fd4:	e51b3008 	ldr	r3, [fp, #-8]
    8fd8:	e3a02000 	mov	r2, #0
    8fdc:	e5832000 	str	r2, [r3]
/home/cf/ZCU/first_year/winter/OS/practical/ex3/kernel/src/startup.cpp:25 (discriminator 3)
	for (i = (int*)_bss_start; i < (int*)_bss_end; i++)
    8fe0:	e51b3008 	ldr	r3, [fp, #-8]
    8fe4:	e2833004 	add	r3, r3, #4
    8fe8:	e50b3008 	str	r3, [fp, #-8]
/home/cf/ZCU/first_year/winter/OS/practical/ex3/kernel/src/startup.cpp:25 (discriminator 1)
    8fec:	e59f3028 	ldr	r3, [pc, #40]	; 901c <_c_startup+0x64>
    8ff0:	e5933000 	ldr	r3, [r3]
    8ff4:	e1a02003 	mov	r2, r3
    8ff8:	e51b3008 	ldr	r3, [fp, #-8]
    8ffc:	e1530002 	cmp	r3, r2
    9000:	3afffff3 	bcc	8fd4 <_c_startup+0x1c>
/home/cf/ZCU/first_year/winter/OS/practical/ex3/kernel/src/startup.cpp:28
	
	return 0;
    9004:	e3a03000 	mov	r3, #0
/home/cf/ZCU/first_year/winter/OS/practical/ex3/kernel/src/startup.cpp:29
}
    9008:	e1a00003 	mov	r0, r3
    900c:	e28bd000 	add	sp, fp, #0
    9010:	e49db004 	pop	{fp}		; (ldr fp, [sp], #4)
    9014:	e12fff1e 	bx	lr
    9018:	000097c8 	andeq	r9, r0, r8, asr #15
    901c:	000097e4 	andeq	r9, r0, r4, ror #15

00009020 <_cpp_startup>:
_cpp_startup():
/home/cf/ZCU/first_year/winter/OS/practical/ex3/kernel/src/startup.cpp:32

extern "C" int _cpp_startup(void)
{
    9020:	e92d4800 	push	{fp, lr}
    9024:	e28db004 	add	fp, sp, #4
    9028:	e24dd008 	sub	sp, sp, #8
/home/cf/ZCU/first_year/winter/OS/practical/ex3/kernel/src/startup.cpp:37
	ctor_ptr* fnptr;
	
	// zavolame konstruktory globalnich C++ trid
	// v poli __CTOR_LIST__ jsou ukazatele na vygenerovane stuby volani konstruktoru
	for (fnptr = __CTOR_LIST__; fnptr < __CTOR_END__; fnptr++)
    902c:	e59f303c 	ldr	r3, [pc, #60]	; 9070 <_cpp_startup+0x50>
    9030:	e50b3008 	str	r3, [fp, #-8]
    9034:	ea000005 	b	9050 <_cpp_startup+0x30>
/home/cf/ZCU/first_year/winter/OS/practical/ex3/kernel/src/startup.cpp:38 (discriminator 3)
		(*fnptr)();
    9038:	e51b3008 	ldr	r3, [fp, #-8]
    903c:	e5933000 	ldr	r3, [r3]
    9040:	e12fff33 	blx	r3
/home/cf/ZCU/first_year/winter/OS/practical/ex3/kernel/src/startup.cpp:37 (discriminator 3)
	for (fnptr = __CTOR_LIST__; fnptr < __CTOR_END__; fnptr++)
    9044:	e51b3008 	ldr	r3, [fp, #-8]
    9048:	e2833004 	add	r3, r3, #4
    904c:	e50b3008 	str	r3, [fp, #-8]
/home/cf/ZCU/first_year/winter/OS/practical/ex3/kernel/src/startup.cpp:37 (discriminator 1)
    9050:	e51b3008 	ldr	r3, [fp, #-8]
    9054:	e59f2018 	ldr	r2, [pc, #24]	; 9074 <_cpp_startup+0x54>
    9058:	e1530002 	cmp	r3, r2
    905c:	3afffff5 	bcc	9038 <_cpp_startup+0x18>
/home/cf/ZCU/first_year/winter/OS/practical/ex3/kernel/src/startup.cpp:40
	
	return 0;
    9060:	e3a03000 	mov	r3, #0
/home/cf/ZCU/first_year/winter/OS/practical/ex3/kernel/src/startup.cpp:41
}
    9064:	e1a00003 	mov	r0, r3
    9068:	e24bd004 	sub	sp, fp, #4
    906c:	e8bd8800 	pop	{fp, pc}
    9070:	000097bc 			; <UNDEFINED> instruction: 0x000097bc
    9074:	000097c8 	andeq	r9, r0, r8, asr #15

00009078 <_cpp_shutdown>:
_cpp_shutdown():
/home/cf/ZCU/first_year/winter/OS/practical/ex3/kernel/src/startup.cpp:44

extern "C" int _cpp_shutdown(void)
{
    9078:	e92d4800 	push	{fp, lr}
    907c:	e28db004 	add	fp, sp, #4
    9080:	e24dd008 	sub	sp, sp, #8
/home/cf/ZCU/first_year/winter/OS/practical/ex3/kernel/src/startup.cpp:48
	dtor_ptr* fnptr;
	
	// zavolame destruktory globalnich C++ trid
	for (fnptr = __DTOR_LIST__; fnptr < __DTOR_END__; fnptr++)
    9084:	e59f303c 	ldr	r3, [pc, #60]	; 90c8 <_cpp_shutdown+0x50>
    9088:	e50b3008 	str	r3, [fp, #-8]
    908c:	ea000005 	b	90a8 <_cpp_shutdown+0x30>
/home/cf/ZCU/first_year/winter/OS/practical/ex3/kernel/src/startup.cpp:49 (discriminator 3)
		(*fnptr)();
    9090:	e51b3008 	ldr	r3, [fp, #-8]
    9094:	e5933000 	ldr	r3, [r3]
    9098:	e12fff33 	blx	r3
/home/cf/ZCU/first_year/winter/OS/practical/ex3/kernel/src/startup.cpp:48 (discriminator 3)
	for (fnptr = __DTOR_LIST__; fnptr < __DTOR_END__; fnptr++)
    909c:	e51b3008 	ldr	r3, [fp, #-8]
    90a0:	e2833004 	add	r3, r3, #4
    90a4:	e50b3008 	str	r3, [fp, #-8]
/home/cf/ZCU/first_year/winter/OS/practical/ex3/kernel/src/startup.cpp:48 (discriminator 1)
    90a8:	e51b3008 	ldr	r3, [fp, #-8]
    90ac:	e59f2018 	ldr	r2, [pc, #24]	; 90cc <_cpp_shutdown+0x54>
    90b0:	e1530002 	cmp	r3, r2
    90b4:	3afffff5 	bcc	9090 <_cpp_shutdown+0x18>
/home/cf/ZCU/first_year/winter/OS/practical/ex3/kernel/src/startup.cpp:51
	
	return 0;
    90b8:	e3a03000 	mov	r3, #0
/home/cf/ZCU/first_year/winter/OS/practical/ex3/kernel/src/startup.cpp:52
}
    90bc:	e1a00003 	mov	r0, r3
    90c0:	e24bd004 	sub	sp, fp, #4
    90c4:	e8bd8800 	pop	{fp, pc}
    90c8:	000097c8 	andeq	r9, r0, r8, asr #15
    90cc:	000097c8 	andeq	r9, r0, r8, asr #15

000090d0 <__udivsi3>:
__udivsi3():
/builddir/build/BUILD/arm-none-eabi-gcc-cs-12.2.0/gcc-arm-none-eabi/arm-none-eabi/arm/v5te/hard/libgcc/../../../../../../gcc-12.2.0/libgcc/config/arm/lib1funcs.S:1104
    90d0:	e2512001 	subs	r2, r1, #1
/builddir/build/BUILD/arm-none-eabi-gcc-cs-12.2.0/gcc-arm-none-eabi/arm-none-eabi/arm/v5te/hard/libgcc/../../../../../../gcc-12.2.0/libgcc/config/arm/lib1funcs.S:1106
    90d4:	012fff1e 	bxeq	lr
/builddir/build/BUILD/arm-none-eabi-gcc-cs-12.2.0/gcc-arm-none-eabi/arm-none-eabi/arm/v5te/hard/libgcc/../../../../../../gcc-12.2.0/libgcc/config/arm/lib1funcs.S:1107
    90d8:	3a000074 	bcc	92b0 <__udivsi3+0x1e0>
/builddir/build/BUILD/arm-none-eabi-gcc-cs-12.2.0/gcc-arm-none-eabi/arm-none-eabi/arm/v5te/hard/libgcc/../../../../../../gcc-12.2.0/libgcc/config/arm/lib1funcs.S:1108
    90dc:	e1500001 	cmp	r0, r1
/builddir/build/BUILD/arm-none-eabi-gcc-cs-12.2.0/gcc-arm-none-eabi/arm-none-eabi/arm/v5te/hard/libgcc/../../../../../../gcc-12.2.0/libgcc/config/arm/lib1funcs.S:1109
    90e0:	9a00006b 	bls	9294 <__udivsi3+0x1c4>
/builddir/build/BUILD/arm-none-eabi-gcc-cs-12.2.0/gcc-arm-none-eabi/arm-none-eabi/arm/v5te/hard/libgcc/../../../../../../gcc-12.2.0/libgcc/config/arm/lib1funcs.S:1110
    90e4:	e1110002 	tst	r1, r2
/builddir/build/BUILD/arm-none-eabi-gcc-cs-12.2.0/gcc-arm-none-eabi/arm-none-eabi/arm/v5te/hard/libgcc/../../../../../../gcc-12.2.0/libgcc/config/arm/lib1funcs.S:1111
    90e8:	0a00006c 	beq	92a0 <__udivsi3+0x1d0>
/builddir/build/BUILD/arm-none-eabi-gcc-cs-12.2.0/gcc-arm-none-eabi/arm-none-eabi/arm/v5te/hard/libgcc/../../../../../../gcc-12.2.0/libgcc/config/arm/lib1funcs.S:1113
    90ec:	e16f3f10 	clz	r3, r0
    90f0:	e16f2f11 	clz	r2, r1
    90f4:	e0423003 	sub	r3, r2, r3
    90f8:	e273301f 	rsbs	r3, r3, #31
    90fc:	10833083 	addne	r3, r3, r3, lsl #1
    9100:	e3a02000 	mov	r2, #0
    9104:	108ff103 	addne	pc, pc, r3, lsl #2
    9108:	e1a00000 	nop			; (mov r0, r0)
    910c:	e1500f81 	cmp	r0, r1, lsl #31
    9110:	e0a22002 	adc	r2, r2, r2
    9114:	20400f81 	subcs	r0, r0, r1, lsl #31
    9118:	e1500f01 	cmp	r0, r1, lsl #30
    911c:	e0a22002 	adc	r2, r2, r2
    9120:	20400f01 	subcs	r0, r0, r1, lsl #30
    9124:	e1500e81 	cmp	r0, r1, lsl #29
    9128:	e0a22002 	adc	r2, r2, r2
    912c:	20400e81 	subcs	r0, r0, r1, lsl #29
    9130:	e1500e01 	cmp	r0, r1, lsl #28
    9134:	e0a22002 	adc	r2, r2, r2
    9138:	20400e01 	subcs	r0, r0, r1, lsl #28
    913c:	e1500d81 	cmp	r0, r1, lsl #27
    9140:	e0a22002 	adc	r2, r2, r2
    9144:	20400d81 	subcs	r0, r0, r1, lsl #27
    9148:	e1500d01 	cmp	r0, r1, lsl #26
    914c:	e0a22002 	adc	r2, r2, r2
    9150:	20400d01 	subcs	r0, r0, r1, lsl #26
    9154:	e1500c81 	cmp	r0, r1, lsl #25
    9158:	e0a22002 	adc	r2, r2, r2
    915c:	20400c81 	subcs	r0, r0, r1, lsl #25
    9160:	e1500c01 	cmp	r0, r1, lsl #24
    9164:	e0a22002 	adc	r2, r2, r2
    9168:	20400c01 	subcs	r0, r0, r1, lsl #24
    916c:	e1500b81 	cmp	r0, r1, lsl #23
    9170:	e0a22002 	adc	r2, r2, r2
    9174:	20400b81 	subcs	r0, r0, r1, lsl #23
    9178:	e1500b01 	cmp	r0, r1, lsl #22
    917c:	e0a22002 	adc	r2, r2, r2
    9180:	20400b01 	subcs	r0, r0, r1, lsl #22
    9184:	e1500a81 	cmp	r0, r1, lsl #21
    9188:	e0a22002 	adc	r2, r2, r2
    918c:	20400a81 	subcs	r0, r0, r1, lsl #21
    9190:	e1500a01 	cmp	r0, r1, lsl #20
    9194:	e0a22002 	adc	r2, r2, r2
    9198:	20400a01 	subcs	r0, r0, r1, lsl #20
    919c:	e1500981 	cmp	r0, r1, lsl #19
    91a0:	e0a22002 	adc	r2, r2, r2
    91a4:	20400981 	subcs	r0, r0, r1, lsl #19
    91a8:	e1500901 	cmp	r0, r1, lsl #18
    91ac:	e0a22002 	adc	r2, r2, r2
    91b0:	20400901 	subcs	r0, r0, r1, lsl #18
    91b4:	e1500881 	cmp	r0, r1, lsl #17
    91b8:	e0a22002 	adc	r2, r2, r2
    91bc:	20400881 	subcs	r0, r0, r1, lsl #17
    91c0:	e1500801 	cmp	r0, r1, lsl #16
    91c4:	e0a22002 	adc	r2, r2, r2
    91c8:	20400801 	subcs	r0, r0, r1, lsl #16
    91cc:	e1500781 	cmp	r0, r1, lsl #15
    91d0:	e0a22002 	adc	r2, r2, r2
    91d4:	20400781 	subcs	r0, r0, r1, lsl #15
    91d8:	e1500701 	cmp	r0, r1, lsl #14
    91dc:	e0a22002 	adc	r2, r2, r2
    91e0:	20400701 	subcs	r0, r0, r1, lsl #14
    91e4:	e1500681 	cmp	r0, r1, lsl #13
    91e8:	e0a22002 	adc	r2, r2, r2
    91ec:	20400681 	subcs	r0, r0, r1, lsl #13
    91f0:	e1500601 	cmp	r0, r1, lsl #12
    91f4:	e0a22002 	adc	r2, r2, r2
    91f8:	20400601 	subcs	r0, r0, r1, lsl #12
    91fc:	e1500581 	cmp	r0, r1, lsl #11
    9200:	e0a22002 	adc	r2, r2, r2
    9204:	20400581 	subcs	r0, r0, r1, lsl #11
    9208:	e1500501 	cmp	r0, r1, lsl #10
    920c:	e0a22002 	adc	r2, r2, r2
    9210:	20400501 	subcs	r0, r0, r1, lsl #10
    9214:	e1500481 	cmp	r0, r1, lsl #9
    9218:	e0a22002 	adc	r2, r2, r2
    921c:	20400481 	subcs	r0, r0, r1, lsl #9
    9220:	e1500401 	cmp	r0, r1, lsl #8
    9224:	e0a22002 	adc	r2, r2, r2
    9228:	20400401 	subcs	r0, r0, r1, lsl #8
    922c:	e1500381 	cmp	r0, r1, lsl #7
    9230:	e0a22002 	adc	r2, r2, r2
    9234:	20400381 	subcs	r0, r0, r1, lsl #7
    9238:	e1500301 	cmp	r0, r1, lsl #6
    923c:	e0a22002 	adc	r2, r2, r2
    9240:	20400301 	subcs	r0, r0, r1, lsl #6
    9244:	e1500281 	cmp	r0, r1, lsl #5
    9248:	e0a22002 	adc	r2, r2, r2
    924c:	20400281 	subcs	r0, r0, r1, lsl #5
    9250:	e1500201 	cmp	r0, r1, lsl #4
    9254:	e0a22002 	adc	r2, r2, r2
    9258:	20400201 	subcs	r0, r0, r1, lsl #4
    925c:	e1500181 	cmp	r0, r1, lsl #3
    9260:	e0a22002 	adc	r2, r2, r2
    9264:	20400181 	subcs	r0, r0, r1, lsl #3
    9268:	e1500101 	cmp	r0, r1, lsl #2
    926c:	e0a22002 	adc	r2, r2, r2
    9270:	20400101 	subcs	r0, r0, r1, lsl #2
    9274:	e1500081 	cmp	r0, r1, lsl #1
    9278:	e0a22002 	adc	r2, r2, r2
    927c:	20400081 	subcs	r0, r0, r1, lsl #1
    9280:	e1500001 	cmp	r0, r1
    9284:	e0a22002 	adc	r2, r2, r2
    9288:	20400001 	subcs	r0, r0, r1
/builddir/build/BUILD/arm-none-eabi-gcc-cs-12.2.0/gcc-arm-none-eabi/arm-none-eabi/arm/v5te/hard/libgcc/../../../../../../gcc-12.2.0/libgcc/config/arm/lib1funcs.S:1115
    928c:	e1a00002 	mov	r0, r2
/builddir/build/BUILD/arm-none-eabi-gcc-cs-12.2.0/gcc-arm-none-eabi/arm-none-eabi/arm/v5te/hard/libgcc/../../../../../../gcc-12.2.0/libgcc/config/arm/lib1funcs.S:1116
    9290:	e12fff1e 	bx	lr
/builddir/build/BUILD/arm-none-eabi-gcc-cs-12.2.0/gcc-arm-none-eabi/arm-none-eabi/arm/v5te/hard/libgcc/../../../../../../gcc-12.2.0/libgcc/config/arm/lib1funcs.S:1119
    9294:	03a00001 	moveq	r0, #1
/builddir/build/BUILD/arm-none-eabi-gcc-cs-12.2.0/gcc-arm-none-eabi/arm-none-eabi/arm/v5te/hard/libgcc/../../../../../../gcc-12.2.0/libgcc/config/arm/lib1funcs.S:1120
    9298:	13a00000 	movne	r0, #0
/builddir/build/BUILD/arm-none-eabi-gcc-cs-12.2.0/gcc-arm-none-eabi/arm-none-eabi/arm/v5te/hard/libgcc/../../../../../../gcc-12.2.0/libgcc/config/arm/lib1funcs.S:1121
    929c:	e12fff1e 	bx	lr
/builddir/build/BUILD/arm-none-eabi-gcc-cs-12.2.0/gcc-arm-none-eabi/arm-none-eabi/arm/v5te/hard/libgcc/../../../../../../gcc-12.2.0/libgcc/config/arm/lib1funcs.S:1123
    92a0:	e16f2f11 	clz	r2, r1
    92a4:	e262201f 	rsb	r2, r2, #31
/builddir/build/BUILD/arm-none-eabi-gcc-cs-12.2.0/gcc-arm-none-eabi/arm-none-eabi/arm/v5te/hard/libgcc/../../../../../../gcc-12.2.0/libgcc/config/arm/lib1funcs.S:1125
    92a8:	e1a00230 	lsr	r0, r0, r2
/builddir/build/BUILD/arm-none-eabi-gcc-cs-12.2.0/gcc-arm-none-eabi/arm-none-eabi/arm/v5te/hard/libgcc/../../../../../../gcc-12.2.0/libgcc/config/arm/lib1funcs.S:1126
    92ac:	e12fff1e 	bx	lr
/builddir/build/BUILD/arm-none-eabi-gcc-cs-12.2.0/gcc-arm-none-eabi/arm-none-eabi/arm/v5te/hard/libgcc/../../../../../../gcc-12.2.0/libgcc/config/arm/lib1funcs.S:1130
    92b0:	e3500000 	cmp	r0, #0
    92b4:	13e00000 	mvnne	r0, #0
    92b8:	ea000097 	b	951c <__aeabi_idiv0>

000092bc <__aeabi_uidivmod>:
__aeabi_uidivmod():
/builddir/build/BUILD/arm-none-eabi-gcc-cs-12.2.0/gcc-arm-none-eabi/arm-none-eabi/arm/v5te/hard/libgcc/../../../../../../gcc-12.2.0/libgcc/config/arm/lib1funcs.S:1161
    92bc:	e3510000 	cmp	r1, #0
/builddir/build/BUILD/arm-none-eabi-gcc-cs-12.2.0/gcc-arm-none-eabi/arm-none-eabi/arm/v5te/hard/libgcc/../../../../../../gcc-12.2.0/libgcc/config/arm/lib1funcs.S:1162
    92c0:	0afffffa 	beq	92b0 <__udivsi3+0x1e0>
/builddir/build/BUILD/arm-none-eabi-gcc-cs-12.2.0/gcc-arm-none-eabi/arm-none-eabi/arm/v5te/hard/libgcc/../../../../../../gcc-12.2.0/libgcc/config/arm/lib1funcs.S:1163
    92c4:	e92d4003 	push	{r0, r1, lr}
/builddir/build/BUILD/arm-none-eabi-gcc-cs-12.2.0/gcc-arm-none-eabi/arm-none-eabi/arm/v5te/hard/libgcc/../../../../../../gcc-12.2.0/libgcc/config/arm/lib1funcs.S:1164
    92c8:	ebffff80 	bl	90d0 <__udivsi3>
/builddir/build/BUILD/arm-none-eabi-gcc-cs-12.2.0/gcc-arm-none-eabi/arm-none-eabi/arm/v5te/hard/libgcc/../../../../../../gcc-12.2.0/libgcc/config/arm/lib1funcs.S:1165
    92cc:	e8bd4006 	pop	{r1, r2, lr}
/builddir/build/BUILD/arm-none-eabi-gcc-cs-12.2.0/gcc-arm-none-eabi/arm-none-eabi/arm/v5te/hard/libgcc/../../../../../../gcc-12.2.0/libgcc/config/arm/lib1funcs.S:1166
    92d0:	e0030092 	mul	r3, r2, r0
/builddir/build/BUILD/arm-none-eabi-gcc-cs-12.2.0/gcc-arm-none-eabi/arm-none-eabi/arm/v5te/hard/libgcc/../../../../../../gcc-12.2.0/libgcc/config/arm/lib1funcs.S:1167
    92d4:	e0411003 	sub	r1, r1, r3
/builddir/build/BUILD/arm-none-eabi-gcc-cs-12.2.0/gcc-arm-none-eabi/arm-none-eabi/arm/v5te/hard/libgcc/../../../../../../gcc-12.2.0/libgcc/config/arm/lib1funcs.S:1168
    92d8:	e12fff1e 	bx	lr

000092dc <__divsi3>:
__divsi3():
/builddir/build/BUILD/arm-none-eabi-gcc-cs-12.2.0/gcc-arm-none-eabi/arm-none-eabi/arm/v5te/hard/libgcc/../../../../../../gcc-12.2.0/libgcc/config/arm/lib1funcs.S:1297
    92dc:	e3510000 	cmp	r1, #0
/builddir/build/BUILD/arm-none-eabi-gcc-cs-12.2.0/gcc-arm-none-eabi/arm-none-eabi/arm/v5te/hard/libgcc/../../../../../../gcc-12.2.0/libgcc/config/arm/lib1funcs.S:1298
    92e0:	0a000081 	beq	94ec <.divsi3_skip_div0_test+0x208>

000092e4 <.divsi3_skip_div0_test>:
/builddir/build/BUILD/arm-none-eabi-gcc-cs-12.2.0/gcc-arm-none-eabi/arm-none-eabi/arm/v5te/hard/libgcc/../../../../../../gcc-12.2.0/libgcc/config/arm/lib1funcs.S:1300
    92e4:	e020c001 	eor	ip, r0, r1
/builddir/build/BUILD/arm-none-eabi-gcc-cs-12.2.0/gcc-arm-none-eabi/arm-none-eabi/arm/v5te/hard/libgcc/../../../../../../gcc-12.2.0/libgcc/config/arm/lib1funcs.S:1302
    92e8:	42611000 	rsbmi	r1, r1, #0
/builddir/build/BUILD/arm-none-eabi-gcc-cs-12.2.0/gcc-arm-none-eabi/arm-none-eabi/arm/v5te/hard/libgcc/../../../../../../gcc-12.2.0/libgcc/config/arm/lib1funcs.S:1303
    92ec:	e2512001 	subs	r2, r1, #1
/builddir/build/BUILD/arm-none-eabi-gcc-cs-12.2.0/gcc-arm-none-eabi/arm-none-eabi/arm/v5te/hard/libgcc/../../../../../../gcc-12.2.0/libgcc/config/arm/lib1funcs.S:1304
    92f0:	0a000070 	beq	94b8 <.divsi3_skip_div0_test+0x1d4>
/builddir/build/BUILD/arm-none-eabi-gcc-cs-12.2.0/gcc-arm-none-eabi/arm-none-eabi/arm/v5te/hard/libgcc/../../../../../../gcc-12.2.0/libgcc/config/arm/lib1funcs.S:1305
    92f4:	e1b03000 	movs	r3, r0
/builddir/build/BUILD/arm-none-eabi-gcc-cs-12.2.0/gcc-arm-none-eabi/arm-none-eabi/arm/v5te/hard/libgcc/../../../../../../gcc-12.2.0/libgcc/config/arm/lib1funcs.S:1307
    92f8:	42603000 	rsbmi	r3, r0, #0
/builddir/build/BUILD/arm-none-eabi-gcc-cs-12.2.0/gcc-arm-none-eabi/arm-none-eabi/arm/v5te/hard/libgcc/../../../../../../gcc-12.2.0/libgcc/config/arm/lib1funcs.S:1308
    92fc:	e1530001 	cmp	r3, r1
/builddir/build/BUILD/arm-none-eabi-gcc-cs-12.2.0/gcc-arm-none-eabi/arm-none-eabi/arm/v5te/hard/libgcc/../../../../../../gcc-12.2.0/libgcc/config/arm/lib1funcs.S:1309
    9300:	9a00006f 	bls	94c4 <.divsi3_skip_div0_test+0x1e0>
/builddir/build/BUILD/arm-none-eabi-gcc-cs-12.2.0/gcc-arm-none-eabi/arm-none-eabi/arm/v5te/hard/libgcc/../../../../../../gcc-12.2.0/libgcc/config/arm/lib1funcs.S:1310
    9304:	e1110002 	tst	r1, r2
/builddir/build/BUILD/arm-none-eabi-gcc-cs-12.2.0/gcc-arm-none-eabi/arm-none-eabi/arm/v5te/hard/libgcc/../../../../../../gcc-12.2.0/libgcc/config/arm/lib1funcs.S:1311
    9308:	0a000071 	beq	94d4 <.divsi3_skip_div0_test+0x1f0>
/builddir/build/BUILD/arm-none-eabi-gcc-cs-12.2.0/gcc-arm-none-eabi/arm-none-eabi/arm/v5te/hard/libgcc/../../../../../../gcc-12.2.0/libgcc/config/arm/lib1funcs.S:1313
    930c:	e16f2f13 	clz	r2, r3
    9310:	e16f0f11 	clz	r0, r1
    9314:	e0402002 	sub	r2, r0, r2
    9318:	e272201f 	rsbs	r2, r2, #31
    931c:	10822082 	addne	r2, r2, r2, lsl #1
    9320:	e3a00000 	mov	r0, #0
    9324:	108ff102 	addne	pc, pc, r2, lsl #2
    9328:	e1a00000 	nop			; (mov r0, r0)
    932c:	e1530f81 	cmp	r3, r1, lsl #31
    9330:	e0a00000 	adc	r0, r0, r0
    9334:	20433f81 	subcs	r3, r3, r1, lsl #31
    9338:	e1530f01 	cmp	r3, r1, lsl #30
    933c:	e0a00000 	adc	r0, r0, r0
    9340:	20433f01 	subcs	r3, r3, r1, lsl #30
    9344:	e1530e81 	cmp	r3, r1, lsl #29
    9348:	e0a00000 	adc	r0, r0, r0
    934c:	20433e81 	subcs	r3, r3, r1, lsl #29
    9350:	e1530e01 	cmp	r3, r1, lsl #28
    9354:	e0a00000 	adc	r0, r0, r0
    9358:	20433e01 	subcs	r3, r3, r1, lsl #28
    935c:	e1530d81 	cmp	r3, r1, lsl #27
    9360:	e0a00000 	adc	r0, r0, r0
    9364:	20433d81 	subcs	r3, r3, r1, lsl #27
    9368:	e1530d01 	cmp	r3, r1, lsl #26
    936c:	e0a00000 	adc	r0, r0, r0
    9370:	20433d01 	subcs	r3, r3, r1, lsl #26
    9374:	e1530c81 	cmp	r3, r1, lsl #25
    9378:	e0a00000 	adc	r0, r0, r0
    937c:	20433c81 	subcs	r3, r3, r1, lsl #25
    9380:	e1530c01 	cmp	r3, r1, lsl #24
    9384:	e0a00000 	adc	r0, r0, r0
    9388:	20433c01 	subcs	r3, r3, r1, lsl #24
    938c:	e1530b81 	cmp	r3, r1, lsl #23
    9390:	e0a00000 	adc	r0, r0, r0
    9394:	20433b81 	subcs	r3, r3, r1, lsl #23
    9398:	e1530b01 	cmp	r3, r1, lsl #22
    939c:	e0a00000 	adc	r0, r0, r0
    93a0:	20433b01 	subcs	r3, r3, r1, lsl #22
    93a4:	e1530a81 	cmp	r3, r1, lsl #21
    93a8:	e0a00000 	adc	r0, r0, r0
    93ac:	20433a81 	subcs	r3, r3, r1, lsl #21
    93b0:	e1530a01 	cmp	r3, r1, lsl #20
    93b4:	e0a00000 	adc	r0, r0, r0
    93b8:	20433a01 	subcs	r3, r3, r1, lsl #20
    93bc:	e1530981 	cmp	r3, r1, lsl #19
    93c0:	e0a00000 	adc	r0, r0, r0
    93c4:	20433981 	subcs	r3, r3, r1, lsl #19
    93c8:	e1530901 	cmp	r3, r1, lsl #18
    93cc:	e0a00000 	adc	r0, r0, r0
    93d0:	20433901 	subcs	r3, r3, r1, lsl #18
    93d4:	e1530881 	cmp	r3, r1, lsl #17
    93d8:	e0a00000 	adc	r0, r0, r0
    93dc:	20433881 	subcs	r3, r3, r1, lsl #17
    93e0:	e1530801 	cmp	r3, r1, lsl #16
    93e4:	e0a00000 	adc	r0, r0, r0
    93e8:	20433801 	subcs	r3, r3, r1, lsl #16
    93ec:	e1530781 	cmp	r3, r1, lsl #15
    93f0:	e0a00000 	adc	r0, r0, r0
    93f4:	20433781 	subcs	r3, r3, r1, lsl #15
    93f8:	e1530701 	cmp	r3, r1, lsl #14
    93fc:	e0a00000 	adc	r0, r0, r0
    9400:	20433701 	subcs	r3, r3, r1, lsl #14
    9404:	e1530681 	cmp	r3, r1, lsl #13
    9408:	e0a00000 	adc	r0, r0, r0
    940c:	20433681 	subcs	r3, r3, r1, lsl #13
    9410:	e1530601 	cmp	r3, r1, lsl #12
    9414:	e0a00000 	adc	r0, r0, r0
    9418:	20433601 	subcs	r3, r3, r1, lsl #12
    941c:	e1530581 	cmp	r3, r1, lsl #11
    9420:	e0a00000 	adc	r0, r0, r0
    9424:	20433581 	subcs	r3, r3, r1, lsl #11
    9428:	e1530501 	cmp	r3, r1, lsl #10
    942c:	e0a00000 	adc	r0, r0, r0
    9430:	20433501 	subcs	r3, r3, r1, lsl #10
    9434:	e1530481 	cmp	r3, r1, lsl #9
    9438:	e0a00000 	adc	r0, r0, r0
    943c:	20433481 	subcs	r3, r3, r1, lsl #9
    9440:	e1530401 	cmp	r3, r1, lsl #8
    9444:	e0a00000 	adc	r0, r0, r0
    9448:	20433401 	subcs	r3, r3, r1, lsl #8
    944c:	e1530381 	cmp	r3, r1, lsl #7
    9450:	e0a00000 	adc	r0, r0, r0
    9454:	20433381 	subcs	r3, r3, r1, lsl #7
    9458:	e1530301 	cmp	r3, r1, lsl #6
    945c:	e0a00000 	adc	r0, r0, r0
    9460:	20433301 	subcs	r3, r3, r1, lsl #6
    9464:	e1530281 	cmp	r3, r1, lsl #5
    9468:	e0a00000 	adc	r0, r0, r0
    946c:	20433281 	subcs	r3, r3, r1, lsl #5
    9470:	e1530201 	cmp	r3, r1, lsl #4
    9474:	e0a00000 	adc	r0, r0, r0
    9478:	20433201 	subcs	r3, r3, r1, lsl #4
    947c:	e1530181 	cmp	r3, r1, lsl #3
    9480:	e0a00000 	adc	r0, r0, r0
    9484:	20433181 	subcs	r3, r3, r1, lsl #3
    9488:	e1530101 	cmp	r3, r1, lsl #2
    948c:	e0a00000 	adc	r0, r0, r0
    9490:	20433101 	subcs	r3, r3, r1, lsl #2
    9494:	e1530081 	cmp	r3, r1, lsl #1
    9498:	e0a00000 	adc	r0, r0, r0
    949c:	20433081 	subcs	r3, r3, r1, lsl #1
    94a0:	e1530001 	cmp	r3, r1
    94a4:	e0a00000 	adc	r0, r0, r0
    94a8:	20433001 	subcs	r3, r3, r1
/builddir/build/BUILD/arm-none-eabi-gcc-cs-12.2.0/gcc-arm-none-eabi/arm-none-eabi/arm/v5te/hard/libgcc/../../../../../../gcc-12.2.0/libgcc/config/arm/lib1funcs.S:1315
    94ac:	e35c0000 	cmp	ip, #0
/builddir/build/BUILD/arm-none-eabi-gcc-cs-12.2.0/gcc-arm-none-eabi/arm-none-eabi/arm/v5te/hard/libgcc/../../../../../../gcc-12.2.0/libgcc/config/arm/lib1funcs.S:1317
    94b0:	42600000 	rsbmi	r0, r0, #0
/builddir/build/BUILD/arm-none-eabi-gcc-cs-12.2.0/gcc-arm-none-eabi/arm-none-eabi/arm/v5te/hard/libgcc/../../../../../../gcc-12.2.0/libgcc/config/arm/lib1funcs.S:1318
    94b4:	e12fff1e 	bx	lr
/builddir/build/BUILD/arm-none-eabi-gcc-cs-12.2.0/gcc-arm-none-eabi/arm-none-eabi/arm/v5te/hard/libgcc/../../../../../../gcc-12.2.0/libgcc/config/arm/lib1funcs.S:1320
    94b8:	e13c0000 	teq	ip, r0
/builddir/build/BUILD/arm-none-eabi-gcc-cs-12.2.0/gcc-arm-none-eabi/arm-none-eabi/arm/v5te/hard/libgcc/../../../../../../gcc-12.2.0/libgcc/config/arm/lib1funcs.S:1322
    94bc:	42600000 	rsbmi	r0, r0, #0
/builddir/build/BUILD/arm-none-eabi-gcc-cs-12.2.0/gcc-arm-none-eabi/arm-none-eabi/arm/v5te/hard/libgcc/../../../../../../gcc-12.2.0/libgcc/config/arm/lib1funcs.S:1323
    94c0:	e12fff1e 	bx	lr
/builddir/build/BUILD/arm-none-eabi-gcc-cs-12.2.0/gcc-arm-none-eabi/arm-none-eabi/arm/v5te/hard/libgcc/../../../../../../gcc-12.2.0/libgcc/config/arm/lib1funcs.S:1326
    94c4:	33a00000 	movcc	r0, #0
/builddir/build/BUILD/arm-none-eabi-gcc-cs-12.2.0/gcc-arm-none-eabi/arm-none-eabi/arm/v5te/hard/libgcc/../../../../../../gcc-12.2.0/libgcc/config/arm/lib1funcs.S:1328
    94c8:	01a00fcc 	asreq	r0, ip, #31
/builddir/build/BUILD/arm-none-eabi-gcc-cs-12.2.0/gcc-arm-none-eabi/arm-none-eabi/arm/v5te/hard/libgcc/../../../../../../gcc-12.2.0/libgcc/config/arm/lib1funcs.S:1329
    94cc:	03800001 	orreq	r0, r0, #1
/builddir/build/BUILD/arm-none-eabi-gcc-cs-12.2.0/gcc-arm-none-eabi/arm-none-eabi/arm/v5te/hard/libgcc/../../../../../../gcc-12.2.0/libgcc/config/arm/lib1funcs.S:1330
    94d0:	e12fff1e 	bx	lr
/builddir/build/BUILD/arm-none-eabi-gcc-cs-12.2.0/gcc-arm-none-eabi/arm-none-eabi/arm/v5te/hard/libgcc/../../../../../../gcc-12.2.0/libgcc/config/arm/lib1funcs.S:1332
    94d4:	e16f2f11 	clz	r2, r1
    94d8:	e262201f 	rsb	r2, r2, #31
/builddir/build/BUILD/arm-none-eabi-gcc-cs-12.2.0/gcc-arm-none-eabi/arm-none-eabi/arm/v5te/hard/libgcc/../../../../../../gcc-12.2.0/libgcc/config/arm/lib1funcs.S:1334
    94dc:	e35c0000 	cmp	ip, #0
/builddir/build/BUILD/arm-none-eabi-gcc-cs-12.2.0/gcc-arm-none-eabi/arm-none-eabi/arm/v5te/hard/libgcc/../../../../../../gcc-12.2.0/libgcc/config/arm/lib1funcs.S:1335
    94e0:	e1a00233 	lsr	r0, r3, r2
/builddir/build/BUILD/arm-none-eabi-gcc-cs-12.2.0/gcc-arm-none-eabi/arm-none-eabi/arm/v5te/hard/libgcc/../../../../../../gcc-12.2.0/libgcc/config/arm/lib1funcs.S:1337
    94e4:	42600000 	rsbmi	r0, r0, #0
/builddir/build/BUILD/arm-none-eabi-gcc-cs-12.2.0/gcc-arm-none-eabi/arm-none-eabi/arm/v5te/hard/libgcc/../../../../../../gcc-12.2.0/libgcc/config/arm/lib1funcs.S:1338
    94e8:	e12fff1e 	bx	lr
/builddir/build/BUILD/arm-none-eabi-gcc-cs-12.2.0/gcc-arm-none-eabi/arm-none-eabi/arm/v5te/hard/libgcc/../../../../../../gcc-12.2.0/libgcc/config/arm/lib1funcs.S:1342
    94ec:	e3500000 	cmp	r0, #0
    94f0:	c3e00102 	mvngt	r0, #-2147483648	; 0x80000000
    94f4:	b3a00102 	movlt	r0, #-2147483648	; 0x80000000
    94f8:	ea000007 	b	951c <__aeabi_idiv0>

000094fc <__aeabi_idivmod>:
__aeabi_idivmod():
/builddir/build/BUILD/arm-none-eabi-gcc-cs-12.2.0/gcc-arm-none-eabi/arm-none-eabi/arm/v5te/hard/libgcc/../../../../../../gcc-12.2.0/libgcc/config/arm/lib1funcs.S:1373
    94fc:	e3510000 	cmp	r1, #0
/builddir/build/BUILD/arm-none-eabi-gcc-cs-12.2.0/gcc-arm-none-eabi/arm-none-eabi/arm/v5te/hard/libgcc/../../../../../../gcc-12.2.0/libgcc/config/arm/lib1funcs.S:1374
    9500:	0afffff9 	beq	94ec <.divsi3_skip_div0_test+0x208>
/builddir/build/BUILD/arm-none-eabi-gcc-cs-12.2.0/gcc-arm-none-eabi/arm-none-eabi/arm/v5te/hard/libgcc/../../../../../../gcc-12.2.0/libgcc/config/arm/lib1funcs.S:1375
    9504:	e92d4003 	push	{r0, r1, lr}
/builddir/build/BUILD/arm-none-eabi-gcc-cs-12.2.0/gcc-arm-none-eabi/arm-none-eabi/arm/v5te/hard/libgcc/../../../../../../gcc-12.2.0/libgcc/config/arm/lib1funcs.S:1376
    9508:	ebffff75 	bl	92e4 <.divsi3_skip_div0_test>
/builddir/build/BUILD/arm-none-eabi-gcc-cs-12.2.0/gcc-arm-none-eabi/arm-none-eabi/arm/v5te/hard/libgcc/../../../../../../gcc-12.2.0/libgcc/config/arm/lib1funcs.S:1377
    950c:	e8bd4006 	pop	{r1, r2, lr}
/builddir/build/BUILD/arm-none-eabi-gcc-cs-12.2.0/gcc-arm-none-eabi/arm-none-eabi/arm/v5te/hard/libgcc/../../../../../../gcc-12.2.0/libgcc/config/arm/lib1funcs.S:1378
    9510:	e0030092 	mul	r3, r2, r0
/builddir/build/BUILD/arm-none-eabi-gcc-cs-12.2.0/gcc-arm-none-eabi/arm-none-eabi/arm/v5te/hard/libgcc/../../../../../../gcc-12.2.0/libgcc/config/arm/lib1funcs.S:1379
    9514:	e0411003 	sub	r1, r1, r3
/builddir/build/BUILD/arm-none-eabi-gcc-cs-12.2.0/gcc-arm-none-eabi/arm-none-eabi/arm/v5te/hard/libgcc/../../../../../../gcc-12.2.0/libgcc/config/arm/lib1funcs.S:1380
    9518:	e12fff1e 	bx	lr

0000951c <__aeabi_idiv0>:
__aeabi_ldiv0():
/builddir/build/BUILD/arm-none-eabi-gcc-cs-12.2.0/gcc-arm-none-eabi/arm-none-eabi/arm/v5te/hard/libgcc/../../../../../../gcc-12.2.0/libgcc/config/arm/lib1funcs.S:1466
    951c:	e12fff1e 	bx	lr

00009520 <memset>:
memset():
/builddir/build/BUILD/newlib-4.1.0/build-newlib/arm-none-eabi/arm/v5te/hard/newlib/libc/string/../../../../../../../../newlib/libc/string/memset.c:51
    9520:	e3100003 	tst	r0, #3
    9524:	0a00003f 	beq	9628 <memset+0x108>
/builddir/build/BUILD/newlib-4.1.0/build-newlib/arm-none-eabi/arm/v5te/hard/newlib/libc/string/../../../../../../../../newlib/libc/string/memset.c:53
    9528:	e3520000 	cmp	r2, #0
    952c:	e2422001 	sub	r2, r2, #1
    9530:	012fff1e 	bxeq	lr
/builddir/build/BUILD/newlib-4.1.0/build-newlib/arm-none-eabi/arm/v5te/hard/newlib/libc/string/../../../../../../../../newlib/libc/string/memset.c:54
    9534:	e201c0ff 	and	ip, r1, #255	; 0xff
/builddir/build/BUILD/newlib-4.1.0/build-newlib/arm-none-eabi/arm/v5te/hard/newlib/libc/string/../../../../../../../../newlib/libc/string/memset.c:42
    9538:	e1a03000 	mov	r3, r0
    953c:	ea000002 	b	954c <memset+0x2c>
/builddir/build/BUILD/newlib-4.1.0/build-newlib/arm-none-eabi/arm/v5te/hard/newlib/libc/string/../../../../../../../../newlib/libc/string/memset.c:53
    9540:	e2422001 	sub	r2, r2, #1
    9544:	e3720001 	cmn	r2, #1
    9548:	012fff1e 	bxeq	lr
/builddir/build/BUILD/newlib-4.1.0/build-newlib/arm-none-eabi/arm/v5te/hard/newlib/libc/string/../../../../../../../../newlib/libc/string/memset.c:54
    954c:	e4c3c001 	strb	ip, [r3], #1
/builddir/build/BUILD/newlib-4.1.0/build-newlib/arm-none-eabi/arm/v5te/hard/newlib/libc/string/../../../../../../../../newlib/libc/string/memset.c:51
    9550:	e3130003 	tst	r3, #3
    9554:	1afffff9 	bne	9540 <memset+0x20>
/builddir/build/BUILD/newlib-4.1.0/build-newlib/arm-none-eabi/arm/v5te/hard/newlib/libc/string/../../../../../../../../newlib/libc/string/memset.c:59
    9558:	e3520003 	cmp	r2, #3
    955c:	9a000027 	bls	9600 <memset+0xe0>
/builddir/build/BUILD/newlib-4.1.0/build-newlib/arm-none-eabi/arm/v5te/hard/newlib/libc/string/../../../../../../../../newlib/libc/string/memset.c:41
    9560:	e92d4030 	push	{r4, r5, lr}
/builddir/build/BUILD/newlib-4.1.0/build-newlib/arm-none-eabi/arm/v5te/hard/newlib/libc/string/../../../../../../../../newlib/libc/string/memset.c:48
    9564:	e201e0ff 	and	lr, r1, #255	; 0xff
/builddir/build/BUILD/newlib-4.1.0/build-newlib/arm-none-eabi/arm/v5te/hard/newlib/libc/string/../../../../../../../../newlib/libc/string/memset.c:66
    9568:	e18ee40e 	orr	lr, lr, lr, lsl #8
/builddir/build/BUILD/newlib-4.1.0/build-newlib/arm-none-eabi/arm/v5te/hard/newlib/libc/string/../../../../../../../../newlib/libc/string/memset.c:72
    956c:	e352000f 	cmp	r2, #15
/builddir/build/BUILD/newlib-4.1.0/build-newlib/arm-none-eabi/arm/v5te/hard/newlib/libc/string/../../../../../../../../newlib/libc/string/memset.c:67
    9570:	e18ee80e 	orr	lr, lr, lr, lsl #16
/builddir/build/BUILD/newlib-4.1.0/build-newlib/arm-none-eabi/arm/v5te/hard/newlib/libc/string/../../../../../../../../newlib/libc/string/memset.c:72
    9574:	9a00002d 	bls	9630 <memset+0x110>
    9578:	e242c010 	sub	ip, r2, #16
    957c:	e3cc400f 	bic	r4, ip, #15
    9580:	e2835020 	add	r5, r3, #32
    9584:	e0855004 	add	r5, r5, r4
    9588:	e1a0422c 	lsr	r4, ip, #4
    958c:	e283c010 	add	ip, r3, #16
/builddir/build/BUILD/newlib-4.1.0/build-newlib/arm-none-eabi/arm/v5te/hard/newlib/libc/string/../../../../../../../../newlib/libc/string/memset.c:74
    9590:	e50ce010 	str	lr, [ip, #-16]
/builddir/build/BUILD/newlib-4.1.0/build-newlib/arm-none-eabi/arm/v5te/hard/newlib/libc/string/../../../../../../../../newlib/libc/string/memset.c:75
    9594:	e50ce00c 	str	lr, [ip, #-12]
/builddir/build/BUILD/newlib-4.1.0/build-newlib/arm-none-eabi/arm/v5te/hard/newlib/libc/string/../../../../../../../../newlib/libc/string/memset.c:76
    9598:	e50ce008 	str	lr, [ip, #-8]
/builddir/build/BUILD/newlib-4.1.0/build-newlib/arm-none-eabi/arm/v5te/hard/newlib/libc/string/../../../../../../../../newlib/libc/string/memset.c:77
    959c:	e50ce004 	str	lr, [ip, #-4]
/builddir/build/BUILD/newlib-4.1.0/build-newlib/arm-none-eabi/arm/v5te/hard/newlib/libc/string/../../../../../../../../newlib/libc/string/memset.c:72
    95a0:	e28cc010 	add	ip, ip, #16
    95a4:	e15c0005 	cmp	ip, r5
    95a8:	1afffff8 	bne	9590 <memset+0x70>
/builddir/build/BUILD/newlib-4.1.0/build-newlib/arm-none-eabi/arm/v5te/hard/newlib/libc/string/../../../../../../../../newlib/libc/string/memset.c:77
    95ac:	e284c001 	add	ip, r4, #1
/builddir/build/BUILD/newlib-4.1.0/build-newlib/arm-none-eabi/arm/v5te/hard/newlib/libc/string/../../../../../../../../newlib/libc/string/memset.c:81
    95b0:	e312000c 	tst	r2, #12
/builddir/build/BUILD/newlib-4.1.0/build-newlib/arm-none-eabi/arm/v5te/hard/newlib/libc/string/../../../../../../../../newlib/libc/string/memset.c:77
    95b4:	e083c20c 	add	ip, r3, ip, lsl #4
/builddir/build/BUILD/newlib-4.1.0/build-newlib/arm-none-eabi/arm/v5te/hard/newlib/libc/string/../../../../../../../../newlib/libc/string/memset.c:78
    95b8:	e202200f 	and	r2, r2, #15
/builddir/build/BUILD/newlib-4.1.0/build-newlib/arm-none-eabi/arm/v5te/hard/newlib/libc/string/../../../../../../../../newlib/libc/string/memset.c:81
    95bc:	0a000017 	beq	9620 <memset+0x100>
    95c0:	e2423004 	sub	r3, r2, #4
    95c4:	e3c33003 	bic	r3, r3, #3
    95c8:	e2833004 	add	r3, r3, #4
    95cc:	e08c3003 	add	r3, ip, r3
/builddir/build/BUILD/newlib-4.1.0/build-newlib/arm-none-eabi/arm/v5te/hard/newlib/libc/string/../../../../../../../../newlib/libc/string/memset.c:83
    95d0:	e48ce004 	str	lr, [ip], #4
/builddir/build/BUILD/newlib-4.1.0/build-newlib/arm-none-eabi/arm/v5te/hard/newlib/libc/string/../../../../../../../../newlib/libc/string/memset.c:81
    95d4:	e153000c 	cmp	r3, ip
    95d8:	1afffffc 	bne	95d0 <memset+0xb0>
/builddir/build/BUILD/newlib-4.1.0/build-newlib/arm-none-eabi/arm/v5te/hard/newlib/libc/string/../../../../../../../../newlib/libc/string/memset.c:84
    95dc:	e2022003 	and	r2, r2, #3
/builddir/build/BUILD/newlib-4.1.0/build-newlib/arm-none-eabi/arm/v5te/hard/newlib/libc/string/../../../../../../../../newlib/libc/string/memset.c:92
    95e0:	e3520000 	cmp	r2, #0
    95e4:	08bd8030 	popeq	{r4, r5, pc}
/builddir/build/BUILD/newlib-4.1.0/build-newlib/arm-none-eabi/arm/v5te/hard/newlib/libc/string/../../../../../../../../newlib/libc/string/memset.c:54
    95e8:	e20110ff 	and	r1, r1, #255	; 0xff
    95ec:	e0832002 	add	r2, r3, r2
/builddir/build/BUILD/newlib-4.1.0/build-newlib/arm-none-eabi/arm/v5te/hard/newlib/libc/string/../../../../../../../../newlib/libc/string/memset.c:93
    95f0:	e4c31001 	strb	r1, [r3], #1
/builddir/build/BUILD/newlib-4.1.0/build-newlib/arm-none-eabi/arm/v5te/hard/newlib/libc/string/../../../../../../../../newlib/libc/string/memset.c:92
    95f4:	e1520003 	cmp	r2, r3
    95f8:	1afffffc 	bne	95f0 <memset+0xd0>
    95fc:	e8bd8030 	pop	{r4, r5, pc}
    9600:	e3520000 	cmp	r2, #0
    9604:	012fff1e 	bxeq	lr
/builddir/build/BUILD/newlib-4.1.0/build-newlib/arm-none-eabi/arm/v5te/hard/newlib/libc/string/../../../../../../../../newlib/libc/string/memset.c:54
    9608:	e20110ff 	and	r1, r1, #255	; 0xff
    960c:	e0832002 	add	r2, r3, r2
/builddir/build/BUILD/newlib-4.1.0/build-newlib/arm-none-eabi/arm/v5te/hard/newlib/libc/string/../../../../../../../../newlib/libc/string/memset.c:93
    9610:	e4c31001 	strb	r1, [r3], #1
/builddir/build/BUILD/newlib-4.1.0/build-newlib/arm-none-eabi/arm/v5te/hard/newlib/libc/string/../../../../../../../../newlib/libc/string/memset.c:92
    9614:	e1520003 	cmp	r2, r3
    9618:	1afffffc 	bne	9610 <memset+0xf0>
    961c:	e12fff1e 	bx	lr
/builddir/build/BUILD/newlib-4.1.0/build-newlib/arm-none-eabi/arm/v5te/hard/newlib/libc/string/../../../../../../../../newlib/libc/string/memset.c:77
    9620:	e1a0300c 	mov	r3, ip
    9624:	eaffffed 	b	95e0 <memset+0xc0>
/builddir/build/BUILD/newlib-4.1.0/build-newlib/arm-none-eabi/arm/v5te/hard/newlib/libc/string/../../../../../../../../newlib/libc/string/memset.c:42
    9628:	e1a03000 	mov	r3, r0
    962c:	eaffffc9 	b	9558 <memset+0x38>
/builddir/build/BUILD/newlib-4.1.0/build-newlib/arm-none-eabi/arm/v5te/hard/newlib/libc/string/../../../../../../../../newlib/libc/string/memset.c:72
    9630:	e1a0c003 	mov	ip, r3
    9634:	eaffffe1 	b	95c0 <memset+0xa0>
