
./kernel:     file format elf32-littlearm


Disassembly of section .text:

00008000 <_start>:
_start():
/home/cf/ZCU/OS/practical/ex2/04_kernel/kernel/src/start.s:8
;@ tady budou symboly, ktere chceme na zacatek kodove sekce
.section .text.start

;@ vstupni bod do kernelu - nechame ho vlozit na zacatek kodu
_start:
    mov sp,#0x8000			;@ nastavime stack pointer na spodek zasobniku
    8000:	e3a0d902 	mov	sp, #32768	; 0x8000
/home/cf/ZCU/OS/practical/ex2/04_kernel/kernel/src/start.s:9
	bl _c_startup			;@ C startup kod (inicializace prostredi)
    8004:	eb000242 	bl	8914 <_c_startup>
/home/cf/ZCU/OS/practical/ex2/04_kernel/kernel/src/start.s:10
	bl _cpp_startup			;@ C++ startup kod (volani globalnich konstruktoru, ...)
    8008:	eb00025b 	bl	897c <_cpp_startup>
/home/cf/ZCU/OS/practical/ex2/04_kernel/kernel/src/start.s:11
    bl _kernel_main			;@ skocime do hlavniho kodu jadra (v C)
    800c:	eb00020a 	bl	883c <_kernel_main>
/home/cf/ZCU/OS/practical/ex2/04_kernel/kernel/src/start.s:12
	bl _cpp_shutdown		;@ C++ shutdown kod (volani globalnich destruktoru, ...)
    8010:	eb00026f 	bl	89d4 <_cpp_shutdown>

00008014 <hang>:
hang():
/home/cf/ZCU/OS/practical/ex2/04_kernel/kernel/src/start.s:14
hang:
    b hang
    8014:	eafffffe 	b	8014 <hang>

00008018 <__cxa_guard_acquire>:
__cxa_guard_acquire():
/home/cf/ZCU/OS/practical/ex2/04_kernel/kernel/src/cxx.cpp:11
	extern "C" int __cxa_guard_acquire (__guard *);
	extern "C" void __cxa_guard_release (__guard *);
	extern "C" void __cxa_guard_abort (__guard *);

	extern "C" int __cxa_guard_acquire (__guard *g)
	{
    8018:	e52db004 	push	{fp}		; (str fp, [sp, #-4]!)
    801c:	e28db000 	add	fp, sp, #0
    8020:	e24dd00c 	sub	sp, sp, #12
    8024:	e50b0008 	str	r0, [fp, #-8]
/home/cf/ZCU/OS/practical/ex2/04_kernel/kernel/src/cxx.cpp:12
		return !*(char *)(g);
    8028:	e51b3008 	ldr	r3, [fp, #-8]
    802c:	e5d33000 	ldrb	r3, [r3]
    8030:	e3530000 	cmp	r3, #0
    8034:	03a03001 	moveq	r3, #1
    8038:	13a03000 	movne	r3, #0
    803c:	e6ef3073 	uxtb	r3, r3
/home/cf/ZCU/OS/practical/ex2/04_kernel/kernel/src/cxx.cpp:13
	}
    8040:	e1a00003 	mov	r0, r3
    8044:	e28bd000 	add	sp, fp, #0
    8048:	e49db004 	pop	{fp}		; (ldr fp, [sp], #4)
    804c:	e12fff1e 	bx	lr

00008050 <__cxa_guard_release>:
__cxa_guard_release():
/home/cf/ZCU/OS/practical/ex2/04_kernel/kernel/src/cxx.cpp:16

	extern "C" void __cxa_guard_release (__guard *g)
	{
    8050:	e52db004 	push	{fp}		; (str fp, [sp, #-4]!)
    8054:	e28db000 	add	fp, sp, #0
    8058:	e24dd00c 	sub	sp, sp, #12
    805c:	e50b0008 	str	r0, [fp, #-8]
/home/cf/ZCU/OS/practical/ex2/04_kernel/kernel/src/cxx.cpp:17
		*(char *)g = 1;
    8060:	e51b3008 	ldr	r3, [fp, #-8]
    8064:	e3a02001 	mov	r2, #1
    8068:	e5c32000 	strb	r2, [r3]
/home/cf/ZCU/OS/practical/ex2/04_kernel/kernel/src/cxx.cpp:18
	}
    806c:	e320f000 	nop	{0}
    8070:	e28bd000 	add	sp, fp, #0
    8074:	e49db004 	pop	{fp}		; (ldr fp, [sp], #4)
    8078:	e12fff1e 	bx	lr

0000807c <__cxa_guard_abort>:
__cxa_guard_abort():
/home/cf/ZCU/OS/practical/ex2/04_kernel/kernel/src/cxx.cpp:21

	extern "C" void __cxa_guard_abort (__guard *)
	{
    807c:	e52db004 	push	{fp}		; (str fp, [sp, #-4]!)
    8080:	e28db000 	add	fp, sp, #0
    8084:	e24dd00c 	sub	sp, sp, #12
    8088:	e50b0008 	str	r0, [fp, #-8]
/home/cf/ZCU/OS/practical/ex2/04_kernel/kernel/src/cxx.cpp:23

	}
    808c:	e320f000 	nop	{0}
    8090:	e28bd000 	add	sp, fp, #0
    8094:	e49db004 	pop	{fp}		; (ldr fp, [sp], #4)
    8098:	e12fff1e 	bx	lr

0000809c <__dso_handle>:
__dso_handle():
/home/cf/ZCU/OS/practical/ex2/04_kernel/kernel/src/cxx.cpp:27
}

extern "C" void __dso_handle()
{
    809c:	e52db004 	push	{fp}		; (str fp, [sp, #-4]!)
    80a0:	e28db000 	add	fp, sp, #0
/home/cf/ZCU/OS/practical/ex2/04_kernel/kernel/src/cxx.cpp:29
    // ignore dtors for now
}
    80a4:	e320f000 	nop	{0}
    80a8:	e28bd000 	add	sp, fp, #0
    80ac:	e49db004 	pop	{fp}		; (ldr fp, [sp], #4)
    80b0:	e12fff1e 	bx	lr

000080b4 <__cxa_atexit>:
__cxa_atexit():
/home/cf/ZCU/OS/practical/ex2/04_kernel/kernel/src/cxx.cpp:32

extern "C" void __cxa_atexit()
{
    80b4:	e52db004 	push	{fp}		; (str fp, [sp, #-4]!)
    80b8:	e28db000 	add	fp, sp, #0
/home/cf/ZCU/OS/practical/ex2/04_kernel/kernel/src/cxx.cpp:34
    // ignore dtors for now
}
    80bc:	e320f000 	nop	{0}
    80c0:	e28bd000 	add	sp, fp, #0
    80c4:	e49db004 	pop	{fp}		; (ldr fp, [sp], #4)
    80c8:	e12fff1e 	bx	lr

000080cc <__cxa_pure_virtual>:
__cxa_pure_virtual():
/home/cf/ZCU/OS/practical/ex2/04_kernel/kernel/src/cxx.cpp:37

extern "C" void __cxa_pure_virtual()
{
    80cc:	e52db004 	push	{fp}		; (str fp, [sp, #-4]!)
    80d0:	e28db000 	add	fp, sp, #0
/home/cf/ZCU/OS/practical/ex2/04_kernel/kernel/src/cxx.cpp:39
    // pure virtual method called
}
    80d4:	e320f000 	nop	{0}
    80d8:	e28bd000 	add	sp, fp, #0
    80dc:	e49db004 	pop	{fp}		; (ldr fp, [sp], #4)
    80e0:	e12fff1e 	bx	lr

000080e4 <__aeabi_unwind_cpp_pr1>:
__aeabi_unwind_cpp_pr1():
/home/cf/ZCU/OS/practical/ex2/04_kernel/kernel/src/cxx.cpp:42

extern "C" void __aeabi_unwind_cpp_pr1()
{
    80e4:	e52db004 	push	{fp}		; (str fp, [sp, #-4]!)
    80e8:	e28db000 	add	fp, sp, #0
/home/cf/ZCU/OS/practical/ex2/04_kernel/kernel/src/cxx.cpp:43 (discriminator 1)
	while (true)
    80ec:	eafffffe 	b	80ec <__aeabi_unwind_cpp_pr1+0x8>

000080f0 <_ZN13CGPIO_HandlerC1Ej>:
_ZN13CGPIO_HandlerC2Ej():
/home/cf/ZCU/OS/practical/ex2/04_kernel/kernel/src/drivers/gpio.cpp:6
#include <hal/peripherals.h>
#include <drivers/gpio.h>

CGPIO_Handler sGPIO(hal::GPIO_Base);

CGPIO_Handler::CGPIO_Handler(unsigned int gpio_base_addr)
    80f0:	e52db004 	push	{fp}		; (str fp, [sp, #-4]!)
    80f4:	e28db000 	add	fp, sp, #0
    80f8:	e24dd00c 	sub	sp, sp, #12
    80fc:	e50b0008 	str	r0, [fp, #-8]
    8100:	e50b100c 	str	r1, [fp, #-12]
/home/cf/ZCU/OS/practical/ex2/04_kernel/kernel/src/drivers/gpio.cpp:7
	: mGPIO(reinterpret_cast<unsigned int*>(gpio_base_addr))
    8104:	e51b200c 	ldr	r2, [fp, #-12]
    8108:	e51b3008 	ldr	r3, [fp, #-8]
    810c:	e5832000 	str	r2, [r3]
/home/cf/ZCU/OS/practical/ex2/04_kernel/kernel/src/drivers/gpio.cpp:10
{
	//
}
    8110:	e51b3008 	ldr	r3, [fp, #-8]
    8114:	e1a00003 	mov	r0, r3
    8118:	e28bd000 	add	sp, fp, #0
    811c:	e49db004 	pop	{fp}		; (ldr fp, [sp], #4)
    8120:	e12fff1e 	bx	lr

00008124 <_ZNK13CGPIO_Handler19Get_GPFSEL_LocationEjRjS0_>:
_ZNK13CGPIO_Handler19Get_GPFSEL_LocationEjRjS0_():
/home/cf/ZCU/OS/practical/ex2/04_kernel/kernel/src/drivers/gpio.cpp:13

bool CGPIO_Handler::Get_GPFSEL_Location(uint32_t pin, uint32_t& reg, uint32_t& bit_idx) const
{
    8124:	e52db004 	push	{fp}		; (str fp, [sp, #-4]!)
    8128:	e28db000 	add	fp, sp, #0
    812c:	e24dd014 	sub	sp, sp, #20
    8130:	e50b0008 	str	r0, [fp, #-8]
    8134:	e50b100c 	str	r1, [fp, #-12]
    8138:	e50b2010 	str	r2, [fp, #-16]
    813c:	e50b3014 	str	r3, [fp, #-20]	; 0xffffffec
/home/cf/ZCU/OS/practical/ex2/04_kernel/kernel/src/drivers/gpio.cpp:14
	if (pin > hal::GPIO_Pin_Count)
    8140:	e51b300c 	ldr	r3, [fp, #-12]
    8144:	e3530036 	cmp	r3, #54	; 0x36
    8148:	9a000001 	bls	8154 <_ZNK13CGPIO_Handler19Get_GPFSEL_LocationEjRjS0_+0x30>
/home/cf/ZCU/OS/practical/ex2/04_kernel/kernel/src/drivers/gpio.cpp:15
		return false;
    814c:	e3a03000 	mov	r3, #0
    8150:	ea000033 	b	8224 <_ZNK13CGPIO_Handler19Get_GPFSEL_LocationEjRjS0_+0x100>
/home/cf/ZCU/OS/practical/ex2/04_kernel/kernel/src/drivers/gpio.cpp:17
	
	switch (pin / 10)
    8154:	e51b300c 	ldr	r3, [fp, #-12]
    8158:	e59f20d4 	ldr	r2, [pc, #212]	; 8234 <_ZNK13CGPIO_Handler19Get_GPFSEL_LocationEjRjS0_+0x110>
    815c:	e0832392 	umull	r2, r3, r2, r3
    8160:	e1a031a3 	lsr	r3, r3, #3
    8164:	e3530005 	cmp	r3, #5
    8168:	979ff103 	ldrls	pc, [pc, r3, lsl #2]
    816c:	ea00001d 	b	81e8 <_ZNK13CGPIO_Handler19Get_GPFSEL_LocationEjRjS0_+0xc4>
    8170:	00008188 	andeq	r8, r0, r8, lsl #3
    8174:	00008198 	muleq	r0, r8, r1
    8178:	000081a8 	andeq	r8, r0, r8, lsr #3
    817c:	000081b8 			; <UNDEFINED> instruction: 0x000081b8
    8180:	000081c8 	andeq	r8, r0, r8, asr #3
    8184:	000081d8 	ldrdeq	r8, [r0], -r8	; <UNPREDICTABLE>
/home/cf/ZCU/OS/practical/ex2/04_kernel/kernel/src/drivers/gpio.cpp:19
	{
		case 0: reg = static_cast<uint32_t>(hal::GPIO_Reg::GPFSEL0); break;
    8188:	e51b3010 	ldr	r3, [fp, #-16]
    818c:	e3a02000 	mov	r2, #0
    8190:	e5832000 	str	r2, [r3]
    8194:	ea000013 	b	81e8 <_ZNK13CGPIO_Handler19Get_GPFSEL_LocationEjRjS0_+0xc4>
/home/cf/ZCU/OS/practical/ex2/04_kernel/kernel/src/drivers/gpio.cpp:20
		case 1: reg = static_cast<uint32_t>(hal::GPIO_Reg::GPFSEL1); break;
    8198:	e51b3010 	ldr	r3, [fp, #-16]
    819c:	e3a02001 	mov	r2, #1
    81a0:	e5832000 	str	r2, [r3]
    81a4:	ea00000f 	b	81e8 <_ZNK13CGPIO_Handler19Get_GPFSEL_LocationEjRjS0_+0xc4>
/home/cf/ZCU/OS/practical/ex2/04_kernel/kernel/src/drivers/gpio.cpp:21
		case 2: reg = static_cast<uint32_t>(hal::GPIO_Reg::GPFSEL2); break;
    81a8:	e51b3010 	ldr	r3, [fp, #-16]
    81ac:	e3a02002 	mov	r2, #2
    81b0:	e5832000 	str	r2, [r3]
    81b4:	ea00000b 	b	81e8 <_ZNK13CGPIO_Handler19Get_GPFSEL_LocationEjRjS0_+0xc4>
/home/cf/ZCU/OS/practical/ex2/04_kernel/kernel/src/drivers/gpio.cpp:22
		case 3: reg = static_cast<uint32_t>(hal::GPIO_Reg::GPFSEL3); break;
    81b8:	e51b3010 	ldr	r3, [fp, #-16]
    81bc:	e3a02003 	mov	r2, #3
    81c0:	e5832000 	str	r2, [r3]
    81c4:	ea000007 	b	81e8 <_ZNK13CGPIO_Handler19Get_GPFSEL_LocationEjRjS0_+0xc4>
/home/cf/ZCU/OS/practical/ex2/04_kernel/kernel/src/drivers/gpio.cpp:23
		case 4: reg = static_cast<uint32_t>(hal::GPIO_Reg::GPFSEL4); break;
    81c8:	e51b3010 	ldr	r3, [fp, #-16]
    81cc:	e3a02004 	mov	r2, #4
    81d0:	e5832000 	str	r2, [r3]
    81d4:	ea000003 	b	81e8 <_ZNK13CGPIO_Handler19Get_GPFSEL_LocationEjRjS0_+0xc4>
/home/cf/ZCU/OS/practical/ex2/04_kernel/kernel/src/drivers/gpio.cpp:24
		case 5: reg = static_cast<uint32_t>(hal::GPIO_Reg::GPFSEL5); break;
    81d8:	e51b3010 	ldr	r3, [fp, #-16]
    81dc:	e3a02005 	mov	r2, #5
    81e0:	e5832000 	str	r2, [r3]
    81e4:	e320f000 	nop	{0}
/home/cf/ZCU/OS/practical/ex2/04_kernel/kernel/src/drivers/gpio.cpp:27
	}
	
	bit_idx = (pin % 10) * 3;
    81e8:	e51b100c 	ldr	r1, [fp, #-12]
    81ec:	e59f3040 	ldr	r3, [pc, #64]	; 8234 <_ZNK13CGPIO_Handler19Get_GPFSEL_LocationEjRjS0_+0x110>
    81f0:	e0832193 	umull	r2, r3, r3, r1
    81f4:	e1a021a3 	lsr	r2, r3, #3
    81f8:	e1a03002 	mov	r3, r2
    81fc:	e1a03103 	lsl	r3, r3, #2
    8200:	e0833002 	add	r3, r3, r2
    8204:	e1a03083 	lsl	r3, r3, #1
    8208:	e0412003 	sub	r2, r1, r3
    820c:	e1a03002 	mov	r3, r2
    8210:	e1a03083 	lsl	r3, r3, #1
    8214:	e0832002 	add	r2, r3, r2
    8218:	e51b3014 	ldr	r3, [fp, #-20]	; 0xffffffec
    821c:	e5832000 	str	r2, [r3]
/home/cf/ZCU/OS/practical/ex2/04_kernel/kernel/src/drivers/gpio.cpp:29
	
	return true;
    8220:	e3a03001 	mov	r3, #1
/home/cf/ZCU/OS/practical/ex2/04_kernel/kernel/src/drivers/gpio.cpp:30
}
    8224:	e1a00003 	mov	r0, r3
    8228:	e28bd000 	add	sp, fp, #0
    822c:	e49db004 	pop	{fp}		; (ldr fp, [sp], #4)
    8230:	e12fff1e 	bx	lr
    8234:	cccccccd 	stclgt	12, cr12, [ip], {205}	; 0xcd

00008238 <_ZNK13CGPIO_Handler18Get_GPCLR_LocationEjRjS0_>:
_ZNK13CGPIO_Handler18Get_GPCLR_LocationEjRjS0_():
/home/cf/ZCU/OS/practical/ex2/04_kernel/kernel/src/drivers/gpio.cpp:33

bool CGPIO_Handler::Get_GPCLR_Location(uint32_t pin, uint32_t& reg, uint32_t& bit_idx) const
{
    8238:	e52db004 	push	{fp}		; (str fp, [sp, #-4]!)
    823c:	e28db000 	add	fp, sp, #0
    8240:	e24dd014 	sub	sp, sp, #20
    8244:	e50b0008 	str	r0, [fp, #-8]
    8248:	e50b100c 	str	r1, [fp, #-12]
    824c:	e50b2010 	str	r2, [fp, #-16]
    8250:	e50b3014 	str	r3, [fp, #-20]	; 0xffffffec
/home/cf/ZCU/OS/practical/ex2/04_kernel/kernel/src/drivers/gpio.cpp:34
	if (pin > hal::GPIO_Pin_Count)
    8254:	e51b300c 	ldr	r3, [fp, #-12]
    8258:	e3530036 	cmp	r3, #54	; 0x36
    825c:	9a000001 	bls	8268 <_ZNK13CGPIO_Handler18Get_GPCLR_LocationEjRjS0_+0x30>
/home/cf/ZCU/OS/practical/ex2/04_kernel/kernel/src/drivers/gpio.cpp:35
		return false;
    8260:	e3a03000 	mov	r3, #0
    8264:	ea00000c 	b	829c <_ZNK13CGPIO_Handler18Get_GPCLR_LocationEjRjS0_+0x64>
/home/cf/ZCU/OS/practical/ex2/04_kernel/kernel/src/drivers/gpio.cpp:37
	
	reg = static_cast<uint32_t>((pin < 32) ? hal::GPIO_Reg::GPCLR0 : hal::GPIO_Reg::GPCLR1);
    8268:	e51b300c 	ldr	r3, [fp, #-12]
    826c:	e353001f 	cmp	r3, #31
    8270:	8a000001 	bhi	827c <_ZNK13CGPIO_Handler18Get_GPCLR_LocationEjRjS0_+0x44>
/home/cf/ZCU/OS/practical/ex2/04_kernel/kernel/src/drivers/gpio.cpp:37 (discriminator 1)
    8274:	e3a0200a 	mov	r2, #10
    8278:	ea000000 	b	8280 <_ZNK13CGPIO_Handler18Get_GPCLR_LocationEjRjS0_+0x48>
/home/cf/ZCU/OS/practical/ex2/04_kernel/kernel/src/drivers/gpio.cpp:37 (discriminator 2)
    827c:	e3a0200b 	mov	r2, #11
/home/cf/ZCU/OS/practical/ex2/04_kernel/kernel/src/drivers/gpio.cpp:37 (discriminator 4)
    8280:	e51b3010 	ldr	r3, [fp, #-16]
    8284:	e5832000 	str	r2, [r3]
/home/cf/ZCU/OS/practical/ex2/04_kernel/kernel/src/drivers/gpio.cpp:38 (discriminator 4)
	bit_idx = pin % 32;
    8288:	e51b300c 	ldr	r3, [fp, #-12]
    828c:	e203201f 	and	r2, r3, #31
    8290:	e51b3014 	ldr	r3, [fp, #-20]	; 0xffffffec
    8294:	e5832000 	str	r2, [r3]
/home/cf/ZCU/OS/practical/ex2/04_kernel/kernel/src/drivers/gpio.cpp:40 (discriminator 4)
	
	return true;
    8298:	e3a03001 	mov	r3, #1
/home/cf/ZCU/OS/practical/ex2/04_kernel/kernel/src/drivers/gpio.cpp:41
}
    829c:	e1a00003 	mov	r0, r3
    82a0:	e28bd000 	add	sp, fp, #0
    82a4:	e49db004 	pop	{fp}		; (ldr fp, [sp], #4)
    82a8:	e12fff1e 	bx	lr

000082ac <_ZNK13CGPIO_Handler18Get_GPSET_LocationEjRjS0_>:
_ZNK13CGPIO_Handler18Get_GPSET_LocationEjRjS0_():
/home/cf/ZCU/OS/practical/ex2/04_kernel/kernel/src/drivers/gpio.cpp:44

bool CGPIO_Handler::Get_GPSET_Location(uint32_t pin, uint32_t& reg, uint32_t& bit_idx) const
{
    82ac:	e52db004 	push	{fp}		; (str fp, [sp, #-4]!)
    82b0:	e28db000 	add	fp, sp, #0
    82b4:	e24dd014 	sub	sp, sp, #20
    82b8:	e50b0008 	str	r0, [fp, #-8]
    82bc:	e50b100c 	str	r1, [fp, #-12]
    82c0:	e50b2010 	str	r2, [fp, #-16]
    82c4:	e50b3014 	str	r3, [fp, #-20]	; 0xffffffec
/home/cf/ZCU/OS/practical/ex2/04_kernel/kernel/src/drivers/gpio.cpp:45
	if (pin > hal::GPIO_Pin_Count)
    82c8:	e51b300c 	ldr	r3, [fp, #-12]
    82cc:	e3530036 	cmp	r3, #54	; 0x36
    82d0:	9a000001 	bls	82dc <_ZNK13CGPIO_Handler18Get_GPSET_LocationEjRjS0_+0x30>
/home/cf/ZCU/OS/practical/ex2/04_kernel/kernel/src/drivers/gpio.cpp:46
		return false;
    82d4:	e3a03000 	mov	r3, #0
    82d8:	ea00000c 	b	8310 <_ZNK13CGPIO_Handler18Get_GPSET_LocationEjRjS0_+0x64>
/home/cf/ZCU/OS/practical/ex2/04_kernel/kernel/src/drivers/gpio.cpp:48
	
	reg = static_cast<uint32_t>((pin < 32) ? hal::GPIO_Reg::GPSET0 : hal::GPIO_Reg::GPSET1);
    82dc:	e51b300c 	ldr	r3, [fp, #-12]
    82e0:	e353001f 	cmp	r3, #31
    82e4:	8a000001 	bhi	82f0 <_ZNK13CGPIO_Handler18Get_GPSET_LocationEjRjS0_+0x44>
/home/cf/ZCU/OS/practical/ex2/04_kernel/kernel/src/drivers/gpio.cpp:48 (discriminator 1)
    82e8:	e3a02007 	mov	r2, #7
    82ec:	ea000000 	b	82f4 <_ZNK13CGPIO_Handler18Get_GPSET_LocationEjRjS0_+0x48>
/home/cf/ZCU/OS/practical/ex2/04_kernel/kernel/src/drivers/gpio.cpp:48 (discriminator 2)
    82f0:	e3a02008 	mov	r2, #8
/home/cf/ZCU/OS/practical/ex2/04_kernel/kernel/src/drivers/gpio.cpp:48 (discriminator 4)
    82f4:	e51b3010 	ldr	r3, [fp, #-16]
    82f8:	e5832000 	str	r2, [r3]
/home/cf/ZCU/OS/practical/ex2/04_kernel/kernel/src/drivers/gpio.cpp:49 (discriminator 4)
	bit_idx = pin % 32;
    82fc:	e51b300c 	ldr	r3, [fp, #-12]
    8300:	e203201f 	and	r2, r3, #31
    8304:	e51b3014 	ldr	r3, [fp, #-20]	; 0xffffffec
    8308:	e5832000 	str	r2, [r3]
/home/cf/ZCU/OS/practical/ex2/04_kernel/kernel/src/drivers/gpio.cpp:51 (discriminator 4)
	
	return true;
    830c:	e3a03001 	mov	r3, #1
/home/cf/ZCU/OS/practical/ex2/04_kernel/kernel/src/drivers/gpio.cpp:52
}
    8310:	e1a00003 	mov	r0, r3
    8314:	e28bd000 	add	sp, fp, #0
    8318:	e49db004 	pop	{fp}		; (ldr fp, [sp], #4)
    831c:	e12fff1e 	bx	lr

00008320 <_ZNK13CGPIO_Handler18Get_GPLEV_LocationEjRjS0_>:
_ZNK13CGPIO_Handler18Get_GPLEV_LocationEjRjS0_():
/home/cf/ZCU/OS/practical/ex2/04_kernel/kernel/src/drivers/gpio.cpp:55

bool CGPIO_Handler::Get_GPLEV_Location(uint32_t pin, uint32_t& reg, uint32_t& bit_idx) const
{
    8320:	e52db004 	push	{fp}		; (str fp, [sp, #-4]!)
    8324:	e28db000 	add	fp, sp, #0
    8328:	e24dd014 	sub	sp, sp, #20
    832c:	e50b0008 	str	r0, [fp, #-8]
    8330:	e50b100c 	str	r1, [fp, #-12]
    8334:	e50b2010 	str	r2, [fp, #-16]
    8338:	e50b3014 	str	r3, [fp, #-20]	; 0xffffffec
/home/cf/ZCU/OS/practical/ex2/04_kernel/kernel/src/drivers/gpio.cpp:56
	if (pin > hal::GPIO_Pin_Count)
    833c:	e51b300c 	ldr	r3, [fp, #-12]
    8340:	e3530036 	cmp	r3, #54	; 0x36
    8344:	9a000001 	bls	8350 <_ZNK13CGPIO_Handler18Get_GPLEV_LocationEjRjS0_+0x30>
/home/cf/ZCU/OS/practical/ex2/04_kernel/kernel/src/drivers/gpio.cpp:57
		return false;
    8348:	e3a03000 	mov	r3, #0
    834c:	ea00000c 	b	8384 <_ZNK13CGPIO_Handler18Get_GPLEV_LocationEjRjS0_+0x64>
/home/cf/ZCU/OS/practical/ex2/04_kernel/kernel/src/drivers/gpio.cpp:59
	
	reg = static_cast<uint32_t>((pin < 32) ? hal::GPIO_Reg::GPLEV0 : hal::GPIO_Reg::GPLEV1);
    8350:	e51b300c 	ldr	r3, [fp, #-12]
    8354:	e353001f 	cmp	r3, #31
    8358:	8a000001 	bhi	8364 <_ZNK13CGPIO_Handler18Get_GPLEV_LocationEjRjS0_+0x44>
/home/cf/ZCU/OS/practical/ex2/04_kernel/kernel/src/drivers/gpio.cpp:59 (discriminator 1)
    835c:	e3a0200d 	mov	r2, #13
    8360:	ea000000 	b	8368 <_ZNK13CGPIO_Handler18Get_GPLEV_LocationEjRjS0_+0x48>
/home/cf/ZCU/OS/practical/ex2/04_kernel/kernel/src/drivers/gpio.cpp:59 (discriminator 2)
    8364:	e3a0200e 	mov	r2, #14
/home/cf/ZCU/OS/practical/ex2/04_kernel/kernel/src/drivers/gpio.cpp:59 (discriminator 4)
    8368:	e51b3010 	ldr	r3, [fp, #-16]
    836c:	e5832000 	str	r2, [r3]
/home/cf/ZCU/OS/practical/ex2/04_kernel/kernel/src/drivers/gpio.cpp:60 (discriminator 4)
	bit_idx = pin % 32;
    8370:	e51b300c 	ldr	r3, [fp, #-12]
    8374:	e203201f 	and	r2, r3, #31
    8378:	e51b3014 	ldr	r3, [fp, #-20]	; 0xffffffec
    837c:	e5832000 	str	r2, [r3]
/home/cf/ZCU/OS/practical/ex2/04_kernel/kernel/src/drivers/gpio.cpp:62 (discriminator 4)
	
	return true;
    8380:	e3a03001 	mov	r3, #1
/home/cf/ZCU/OS/practical/ex2/04_kernel/kernel/src/drivers/gpio.cpp:63
}
    8384:	e1a00003 	mov	r0, r3
    8388:	e28bd000 	add	sp, fp, #0
    838c:	e49db004 	pop	{fp}		; (ldr fp, [sp], #4)
    8390:	e12fff1e 	bx	lr

00008394 <_ZN13CGPIO_Handler17Set_GPIO_FunctionEj14NGPIO_Function>:
_ZN13CGPIO_Handler17Set_GPIO_FunctionEj14NGPIO_Function():
/home/cf/ZCU/OS/practical/ex2/04_kernel/kernel/src/drivers/gpio.cpp:66
		
void CGPIO_Handler::Set_GPIO_Function(uint32_t pin, NGPIO_Function func)
{
    8394:	e92d4800 	push	{fp, lr}
    8398:	e28db004 	add	fp, sp, #4
    839c:	e24dd018 	sub	sp, sp, #24
    83a0:	e50b0010 	str	r0, [fp, #-16]
    83a4:	e50b1014 	str	r1, [fp, #-20]	; 0xffffffec
    83a8:	e1a03002 	mov	r3, r2
    83ac:	e54b3015 	strb	r3, [fp, #-21]	; 0xffffffeb
/home/cf/ZCU/OS/practical/ex2/04_kernel/kernel/src/drivers/gpio.cpp:68
	uint32_t reg, bit;
	if (!Get_GPFSEL_Location(pin, reg, bit))
    83b0:	e24b300c 	sub	r3, fp, #12
    83b4:	e24b2008 	sub	r2, fp, #8
    83b8:	e51b1014 	ldr	r1, [fp, #-20]	; 0xffffffec
    83bc:	e51b0010 	ldr	r0, [fp, #-16]
    83c0:	ebffff57 	bl	8124 <_ZNK13CGPIO_Handler19Get_GPFSEL_LocationEjRjS0_>
    83c4:	e1a03000 	mov	r3, r0
    83c8:	e2233001 	eor	r3, r3, #1
    83cc:	e6ef3073 	uxtb	r3, r3
    83d0:	e3530000 	cmp	r3, #0
    83d4:	1a000015 	bne	8430 <_ZN13CGPIO_Handler17Set_GPIO_FunctionEj14NGPIO_Function+0x9c>
/home/cf/ZCU/OS/practical/ex2/04_kernel/kernel/src/drivers/gpio.cpp:71
		return;
	
	mGPIO[reg] = (mGPIO[reg] & (~static_cast<unsigned int>(7 << bit)) )
    83d8:	e51b3010 	ldr	r3, [fp, #-16]
    83dc:	e5932000 	ldr	r2, [r3]
    83e0:	e51b3008 	ldr	r3, [fp, #-8]
    83e4:	e1a03103 	lsl	r3, r3, #2
    83e8:	e0823003 	add	r3, r2, r3
    83ec:	e5932000 	ldr	r2, [r3]
    83f0:	e51b300c 	ldr	r3, [fp, #-12]
    83f4:	e3a01007 	mov	r1, #7
    83f8:	e1a03311 	lsl	r3, r1, r3
    83fc:	e1e03003 	mvn	r3, r3
    8400:	e0021003 	and	r1, r2, r3
/home/cf/ZCU/OS/practical/ex2/04_kernel/kernel/src/drivers/gpio.cpp:72
				| (static_cast<unsigned int>(func) << bit);
    8404:	e55b2015 	ldrb	r2, [fp, #-21]	; 0xffffffeb
    8408:	e51b300c 	ldr	r3, [fp, #-12]
    840c:	e1a02312 	lsl	r2, r2, r3
/home/cf/ZCU/OS/practical/ex2/04_kernel/kernel/src/drivers/gpio.cpp:71
	mGPIO[reg] = (mGPIO[reg] & (~static_cast<unsigned int>(7 << bit)) )
    8410:	e51b3010 	ldr	r3, [fp, #-16]
    8414:	e5930000 	ldr	r0, [r3]
    8418:	e51b3008 	ldr	r3, [fp, #-8]
    841c:	e1a03103 	lsl	r3, r3, #2
    8420:	e0803003 	add	r3, r0, r3
/home/cf/ZCU/OS/practical/ex2/04_kernel/kernel/src/drivers/gpio.cpp:72
				| (static_cast<unsigned int>(func) << bit);
    8424:	e1812002 	orr	r2, r1, r2
/home/cf/ZCU/OS/practical/ex2/04_kernel/kernel/src/drivers/gpio.cpp:71
	mGPIO[reg] = (mGPIO[reg] & (~static_cast<unsigned int>(7 << bit)) )
    8428:	e5832000 	str	r2, [r3]
    842c:	ea000000 	b	8434 <_ZN13CGPIO_Handler17Set_GPIO_FunctionEj14NGPIO_Function+0xa0>
/home/cf/ZCU/OS/practical/ex2/04_kernel/kernel/src/drivers/gpio.cpp:69
		return;
    8430:	e320f000 	nop	{0}
/home/cf/ZCU/OS/practical/ex2/04_kernel/kernel/src/drivers/gpio.cpp:73
}
    8434:	e24bd004 	sub	sp, fp, #4
    8438:	e8bd8800 	pop	{fp, pc}

0000843c <_ZNK13CGPIO_Handler17Get_GPIO_FunctionEj>:
_ZNK13CGPIO_Handler17Get_GPIO_FunctionEj():
/home/cf/ZCU/OS/practical/ex2/04_kernel/kernel/src/drivers/gpio.cpp:76

NGPIO_Function CGPIO_Handler::Get_GPIO_Function(uint32_t pin) const
{
    843c:	e92d4800 	push	{fp, lr}
    8440:	e28db004 	add	fp, sp, #4
    8444:	e24dd010 	sub	sp, sp, #16
    8448:	e50b0010 	str	r0, [fp, #-16]
    844c:	e50b1014 	str	r1, [fp, #-20]	; 0xffffffec
/home/cf/ZCU/OS/practical/ex2/04_kernel/kernel/src/drivers/gpio.cpp:78
	uint32_t reg, bit;
	if (!Get_GPFSEL_Location(pin, reg, bit))
    8450:	e24b300c 	sub	r3, fp, #12
    8454:	e24b2008 	sub	r2, fp, #8
    8458:	e51b1014 	ldr	r1, [fp, #-20]	; 0xffffffec
    845c:	e51b0010 	ldr	r0, [fp, #-16]
    8460:	ebffff2f 	bl	8124 <_ZNK13CGPIO_Handler19Get_GPFSEL_LocationEjRjS0_>
    8464:	e1a03000 	mov	r3, r0
    8468:	e2233001 	eor	r3, r3, #1
    846c:	e6ef3073 	uxtb	r3, r3
    8470:	e3530000 	cmp	r3, #0
    8474:	0a000001 	beq	8480 <_ZNK13CGPIO_Handler17Get_GPIO_FunctionEj+0x44>
/home/cf/ZCU/OS/practical/ex2/04_kernel/kernel/src/drivers/gpio.cpp:79
		return NGPIO_Function::Unspecified;
    8478:	e3a03008 	mov	r3, #8
    847c:	ea00000a 	b	84ac <_ZNK13CGPIO_Handler17Get_GPIO_FunctionEj+0x70>
/home/cf/ZCU/OS/practical/ex2/04_kernel/kernel/src/drivers/gpio.cpp:81
	
	return static_cast<NGPIO_Function>((mGPIO[reg] >> bit) & 7);
    8480:	e51b3010 	ldr	r3, [fp, #-16]
    8484:	e5932000 	ldr	r2, [r3]
    8488:	e51b3008 	ldr	r3, [fp, #-8]
    848c:	e1a03103 	lsl	r3, r3, #2
    8490:	e0823003 	add	r3, r2, r3
    8494:	e5932000 	ldr	r2, [r3]
    8498:	e51b300c 	ldr	r3, [fp, #-12]
    849c:	e1a03332 	lsr	r3, r2, r3
    84a0:	e6ef3073 	uxtb	r3, r3
    84a4:	e2033007 	and	r3, r3, #7
    84a8:	e6ef3073 	uxtb	r3, r3
/home/cf/ZCU/OS/practical/ex2/04_kernel/kernel/src/drivers/gpio.cpp:82 (discriminator 1)
}
    84ac:	e1a00003 	mov	r0, r3
    84b0:	e24bd004 	sub	sp, fp, #4
    84b4:	e8bd8800 	pop	{fp, pc}

000084b8 <_ZN13CGPIO_Handler10Set_OutputEjb>:
_ZN13CGPIO_Handler10Set_OutputEjb():
/home/cf/ZCU/OS/practical/ex2/04_kernel/kernel/src/drivers/gpio.cpp:85

void CGPIO_Handler::Set_Output(uint32_t pin, bool set)
{
    84b8:	e92d4800 	push	{fp, lr}
    84bc:	e28db004 	add	fp, sp, #4
    84c0:	e24dd018 	sub	sp, sp, #24
    84c4:	e50b0010 	str	r0, [fp, #-16]
    84c8:	e50b1014 	str	r1, [fp, #-20]	; 0xffffffec
    84cc:	e1a03002 	mov	r3, r2
    84d0:	e54b3015 	strb	r3, [fp, #-21]	; 0xffffffeb
/home/cf/ZCU/OS/practical/ex2/04_kernel/kernel/src/drivers/gpio.cpp:87
	uint32_t reg, bit;
	if (!(set && Get_GPSET_Location(pin, reg, bit)) && !(!set && Get_GPCLR_Location(pin, reg, bit)))
    84d4:	e55b3015 	ldrb	r3, [fp, #-21]	; 0xffffffeb
    84d8:	e2233001 	eor	r3, r3, #1
    84dc:	e6ef3073 	uxtb	r3, r3
    84e0:	e3530000 	cmp	r3, #0
    84e4:	1a000009 	bne	8510 <_ZN13CGPIO_Handler10Set_OutputEjb+0x58>
/home/cf/ZCU/OS/practical/ex2/04_kernel/kernel/src/drivers/gpio.cpp:87 (discriminator 2)
    84e8:	e24b300c 	sub	r3, fp, #12
    84ec:	e24b2008 	sub	r2, fp, #8
    84f0:	e51b1014 	ldr	r1, [fp, #-20]	; 0xffffffec
    84f4:	e51b0010 	ldr	r0, [fp, #-16]
    84f8:	ebffff6b 	bl	82ac <_ZNK13CGPIO_Handler18Get_GPSET_LocationEjRjS0_>
    84fc:	e1a03000 	mov	r3, r0
    8500:	e2233001 	eor	r3, r3, #1
    8504:	e6ef3073 	uxtb	r3, r3
    8508:	e3530000 	cmp	r3, #0
    850c:	0a00000e 	beq	854c <_ZN13CGPIO_Handler10Set_OutputEjb+0x94>
/home/cf/ZCU/OS/practical/ex2/04_kernel/kernel/src/drivers/gpio.cpp:87 (discriminator 3)
    8510:	e55b3015 	ldrb	r3, [fp, #-21]	; 0xffffffeb
    8514:	e3530000 	cmp	r3, #0
    8518:	1a000009 	bne	8544 <_ZN13CGPIO_Handler10Set_OutputEjb+0x8c>
/home/cf/ZCU/OS/practical/ex2/04_kernel/kernel/src/drivers/gpio.cpp:87 (discriminator 6)
    851c:	e24b300c 	sub	r3, fp, #12
    8520:	e24b2008 	sub	r2, fp, #8
    8524:	e51b1014 	ldr	r1, [fp, #-20]	; 0xffffffec
    8528:	e51b0010 	ldr	r0, [fp, #-16]
    852c:	ebffff41 	bl	8238 <_ZNK13CGPIO_Handler18Get_GPCLR_LocationEjRjS0_>
    8530:	e1a03000 	mov	r3, r0
    8534:	e2233001 	eor	r3, r3, #1
    8538:	e6ef3073 	uxtb	r3, r3
    853c:	e3530000 	cmp	r3, #0
    8540:	0a000001 	beq	854c <_ZN13CGPIO_Handler10Set_OutputEjb+0x94>
/home/cf/ZCU/OS/practical/ex2/04_kernel/kernel/src/drivers/gpio.cpp:87 (discriminator 7)
    8544:	e3a03001 	mov	r3, #1
    8548:	ea000000 	b	8550 <_ZN13CGPIO_Handler10Set_OutputEjb+0x98>
/home/cf/ZCU/OS/practical/ex2/04_kernel/kernel/src/drivers/gpio.cpp:87 (discriminator 8)
    854c:	e3a03000 	mov	r3, #0
/home/cf/ZCU/OS/practical/ex2/04_kernel/kernel/src/drivers/gpio.cpp:87 (discriminator 10)
    8550:	e3530000 	cmp	r3, #0
    8554:	1a00000a 	bne	8584 <_ZN13CGPIO_Handler10Set_OutputEjb+0xcc>
/home/cf/ZCU/OS/practical/ex2/04_kernel/kernel/src/drivers/gpio.cpp:90
		return;
	
	mGPIO[reg] = (1 << bit);
    8558:	e51b300c 	ldr	r3, [fp, #-12]
    855c:	e3a02001 	mov	r2, #1
    8560:	e1a01312 	lsl	r1, r2, r3
    8564:	e51b3010 	ldr	r3, [fp, #-16]
    8568:	e5932000 	ldr	r2, [r3]
    856c:	e51b3008 	ldr	r3, [fp, #-8]
    8570:	e1a03103 	lsl	r3, r3, #2
    8574:	e0823003 	add	r3, r2, r3
    8578:	e1a02001 	mov	r2, r1
    857c:	e5832000 	str	r2, [r3]
    8580:	ea000000 	b	8588 <_ZN13CGPIO_Handler10Set_OutputEjb+0xd0>
/home/cf/ZCU/OS/practical/ex2/04_kernel/kernel/src/drivers/gpio.cpp:88
		return;
    8584:	e320f000 	nop	{0}
/home/cf/ZCU/OS/practical/ex2/04_kernel/kernel/src/drivers/gpio.cpp:91
}
    8588:	e24bd004 	sub	sp, fp, #4
    858c:	e8bd8800 	pop	{fp, pc}

00008590 <_Z41__static_initialization_and_destruction_0ii>:
_Z41__static_initialization_and_destruction_0ii():
/home/cf/ZCU/OS/practical/ex2/04_kernel/kernel/src/drivers/gpio.cpp:91
    8590:	e92d4800 	push	{fp, lr}
    8594:	e28db004 	add	fp, sp, #4
    8598:	e24dd008 	sub	sp, sp, #8
    859c:	e50b0008 	str	r0, [fp, #-8]
    85a0:	e50b100c 	str	r1, [fp, #-12]
    85a4:	e51b3008 	ldr	r3, [fp, #-8]
    85a8:	e3530001 	cmp	r3, #1
    85ac:	1a000006 	bne	85cc <_Z41__static_initialization_and_destruction_0ii+0x3c>
/home/cf/ZCU/OS/practical/ex2/04_kernel/kernel/src/drivers/gpio.cpp:91 (discriminator 1)
    85b0:	e51b300c 	ldr	r3, [fp, #-12]
    85b4:	e59f201c 	ldr	r2, [pc, #28]	; 85d8 <_Z41__static_initialization_and_destruction_0ii+0x48>
    85b8:	e1530002 	cmp	r3, r2
    85bc:	1a000002 	bne	85cc <_Z41__static_initialization_and_destruction_0ii+0x3c>
/home/cf/ZCU/OS/practical/ex2/04_kernel/kernel/src/drivers/gpio.cpp:4
CGPIO_Handler sGPIO(hal::GPIO_Base);
    85c0:	e59f1014 	ldr	r1, [pc, #20]	; 85dc <_Z41__static_initialization_and_destruction_0ii+0x4c>
    85c4:	e59f0014 	ldr	r0, [pc, #20]	; 85e0 <_Z41__static_initialization_and_destruction_0ii+0x50>
    85c8:	ebfffec8 	bl	80f0 <_ZN13CGPIO_HandlerC1Ej>
/home/cf/ZCU/OS/practical/ex2/04_kernel/kernel/src/drivers/gpio.cpp:91
}
    85cc:	e320f000 	nop	{0}
    85d0:	e24bd004 	sub	sp, fp, #4
    85d4:	e8bd8800 	pop	{fp, pc}
    85d8:	0000ffff 	strdeq	pc, [r0], -pc	; <UNPREDICTABLE>
    85dc:	20200000 	eorcs	r0, r0, r0
    85e0:	00008cdc 	ldrdeq	r8, [r0], -ip

000085e4 <_GLOBAL__sub_I_sGPIO>:
_GLOBAL__sub_I_sGPIO():
/home/cf/ZCU/OS/practical/ex2/04_kernel/kernel/src/drivers/gpio.cpp:91
    85e4:	e92d4800 	push	{fp, lr}
    85e8:	e28db004 	add	fp, sp, #4
    85ec:	e59f1008 	ldr	r1, [pc, #8]	; 85fc <_GLOBAL__sub_I_sGPIO+0x18>
    85f0:	e3a00001 	mov	r0, #1
    85f4:	ebffffe5 	bl	8590 <_Z41__static_initialization_and_destruction_0ii>
    85f8:	e8bd8800 	pop	{fp, pc}
    85fc:	0000ffff 	strdeq	pc, [r0], -pc	; <UNPREDICTABLE>

00008600 <_ZN3LCGC1Ev>:
_ZN3LCGC2Ev():
/home/cf/ZCU/OS/practical/ex2/04_kernel/kernel/src/drivers/lcg.cpp:5
#include <drivers/lcg.h>

LCG lcgInstance;

LCG::LCG() {}; // does this need to be specified?
    8600:	e52db004 	push	{fp}		; (str fp, [sp, #-4]!)
    8604:	e28db000 	add	fp, sp, #0
    8608:	e24dd00c 	sub	sp, sp, #12
    860c:	e50b0008 	str	r0, [fp, #-8]
    8610:	e51b3008 	ldr	r3, [fp, #-8]
    8614:	e59f202c 	ldr	r2, [pc, #44]	; 8648 <_ZN3LCGC1Ev+0x48>
    8618:	e5832000 	str	r2, [r3]
    861c:	e51b3008 	ldr	r3, [fp, #-8]
    8620:	e59f2024 	ldr	r2, [pc, #36]	; 864c <_ZN3LCGC1Ev+0x4c>
    8624:	e5832004 	str	r2, [r3, #4]
    8628:	e51b3008 	ldr	r3, [fp, #-8]
    862c:	e59f201c 	ldr	r2, [pc, #28]	; 8650 <_ZN3LCGC1Ev+0x50>
    8630:	e5832008 	str	r2, [r3, #8]
    8634:	e51b3008 	ldr	r3, [fp, #-8]
    8638:	e1a00003 	mov	r0, r3
    863c:	e28bd000 	add	sp, fp, #0
    8640:	e49db004 	pop	{fp}		; (ldr fp, [sp], #4)
    8644:	e12fff1e 	bx	lr
    8648:	004ce3fd 	strdeq	lr, [ip], #-61	; 0xffffffc3
    864c:	01250dc5 	smlawteq	r5, r5, sp, r0
    8650:	498eda44 	stmibmi	lr, {r2, r6, r9, fp, ip, lr, pc}

00008654 <_ZN3LCGC1Ei>:
_ZN3LCGC2Ei():
/home/cf/ZCU/OS/practical/ex2/04_kernel/kernel/src/drivers/lcg.cpp:6
LCG::LCG(int p_seed) 
    8654:	e52db004 	push	{fp}		; (str fp, [sp, #-4]!)
    8658:	e28db000 	add	fp, sp, #0
    865c:	e24dd00c 	sub	sp, sp, #12
    8660:	e50b0008 	str	r0, [fp, #-8]
    8664:	e50b100c 	str	r1, [fp, #-12]
/home/cf/ZCU/OS/practical/ex2/04_kernel/kernel/src/drivers/lcg.cpp:7
    : seed(p_seed) {};
    8668:	e51b3008 	ldr	r3, [fp, #-8]
    866c:	e59f2038 	ldr	r2, [pc, #56]	; 86ac <_ZN3LCGC1Ei+0x58>
    8670:	e5832000 	str	r2, [r3]
    8674:	e51b3008 	ldr	r3, [fp, #-8]
    8678:	e59f2030 	ldr	r2, [pc, #48]	; 86b0 <_ZN3LCGC1Ei+0x5c>
    867c:	e5832004 	str	r2, [r3, #4]
    8680:	e51b3008 	ldr	r3, [fp, #-8]
    8684:	e59f2028 	ldr	r2, [pc, #40]	; 86b4 <_ZN3LCGC1Ei+0x60>
    8688:	e5832008 	str	r2, [r3, #8]
    868c:	e51b3008 	ldr	r3, [fp, #-8]
    8690:	e51b200c 	ldr	r2, [fp, #-12]
    8694:	e583200c 	str	r2, [r3, #12]
    8698:	e51b3008 	ldr	r3, [fp, #-8]
    869c:	e1a00003 	mov	r0, r3
    86a0:	e28bd000 	add	sp, fp, #0
    86a4:	e49db004 	pop	{fp}		; (ldr fp, [sp], #4)
    86a8:	e12fff1e 	bx	lr
    86ac:	004ce3fd 	strdeq	lr, [ip], #-61	; 0xffffffc3
    86b0:	01250dc5 	smlawteq	r5, r5, sp, r0
    86b4:	498eda44 	stmibmi	lr, {r2, r6, r9, fp, ip, lr, pc}

000086b8 <_ZN3LCG8set_seedEi>:
_ZN3LCG8set_seedEi():
/home/cf/ZCU/OS/practical/ex2/04_kernel/kernel/src/drivers/lcg.cpp:10


void LCG::set_seed(int p_seed) {
    86b8:	e52db004 	push	{fp}		; (str fp, [sp, #-4]!)
    86bc:	e28db000 	add	fp, sp, #0
    86c0:	e24dd00c 	sub	sp, sp, #12
    86c4:	e50b0008 	str	r0, [fp, #-8]
    86c8:	e50b100c 	str	r1, [fp, #-12]
/home/cf/ZCU/OS/practical/ex2/04_kernel/kernel/src/drivers/lcg.cpp:11
    seed = p_seed;
    86cc:	e51b3008 	ldr	r3, [fp, #-8]
    86d0:	e51b200c 	ldr	r2, [fp, #-12]
    86d4:	e583200c 	str	r2, [r3, #12]
/home/cf/ZCU/OS/practical/ex2/04_kernel/kernel/src/drivers/lcg.cpp:12
}
    86d8:	e320f000 	nop	{0}
    86dc:	e28bd000 	add	sp, fp, #0
    86e0:	e49db004 	pop	{fp}		; (ldr fp, [sp], #4)
    86e4:	e12fff1e 	bx	lr

000086e8 <_ZN3LCG8get_seedEv>:
_ZN3LCG8get_seedEv():
/home/cf/ZCU/OS/practical/ex2/04_kernel/kernel/src/drivers/lcg.cpp:14

int LCG::get_seed() {
    86e8:	e52db004 	push	{fp}		; (str fp, [sp, #-4]!)
    86ec:	e28db000 	add	fp, sp, #0
    86f0:	e24dd00c 	sub	sp, sp, #12
    86f4:	e50b0008 	str	r0, [fp, #-8]
/home/cf/ZCU/OS/practical/ex2/04_kernel/kernel/src/drivers/lcg.cpp:15
    return seed;
    86f8:	e51b3008 	ldr	r3, [fp, #-8]
    86fc:	e593300c 	ldr	r3, [r3, #12]
/home/cf/ZCU/OS/practical/ex2/04_kernel/kernel/src/drivers/lcg.cpp:16
}
    8700:	e1a00003 	mov	r0, r3
    8704:	e28bd000 	add	sp, fp, #0
    8708:	e49db004 	pop	{fp}		; (ldr fp, [sp], #4)
    870c:	e12fff1e 	bx	lr

00008710 <_ZN3LCG8get_nextEv>:
_ZN3LCG8get_nextEv():
/home/cf/ZCU/OS/practical/ex2/04_kernel/kernel/src/drivers/lcg.cpp:18

int LCG::get_next() {
    8710:	e92d4800 	push	{fp, lr}
    8714:	e28db004 	add	fp, sp, #4
    8718:	e24dd008 	sub	sp, sp, #8
    871c:	e50b0008 	str	r0, [fp, #-8]
/home/cf/ZCU/OS/practical/ex2/04_kernel/kernel/src/drivers/lcg.cpp:19
    seed = (a * seed + c) % mod;
    8720:	e51b3008 	ldr	r3, [fp, #-8]
    8724:	e5933000 	ldr	r3, [r3]
    8728:	e51b2008 	ldr	r2, [fp, #-8]
    872c:	e592200c 	ldr	r2, [r2, #12]
    8730:	e0020392 	mul	r2, r2, r3
    8734:	e51b3008 	ldr	r3, [fp, #-8]
    8738:	e5933004 	ldr	r3, [r3, #4]
    873c:	e0822003 	add	r2, r2, r3
    8740:	e51b3008 	ldr	r3, [fp, #-8]
    8744:	e5933008 	ldr	r3, [r3, #8]
    8748:	e1a01003 	mov	r1, r3
    874c:	e1a00002 	mov	r0, r2
    8750:	eb00013d 	bl	8c4c <__aeabi_idivmod>
    8754:	e1a03001 	mov	r3, r1
    8758:	e1a02003 	mov	r2, r3
    875c:	e51b3008 	ldr	r3, [fp, #-8]
    8760:	e583200c 	str	r2, [r3, #12]
/home/cf/ZCU/OS/practical/ex2/04_kernel/kernel/src/drivers/lcg.cpp:20
    return seed;
    8764:	e51b3008 	ldr	r3, [fp, #-8]
    8768:	e593300c 	ldr	r3, [r3, #12]
/home/cf/ZCU/OS/practical/ex2/04_kernel/kernel/src/drivers/lcg.cpp:21
    876c:	e1a00003 	mov	r0, r3
    8770:	e24bd004 	sub	sp, fp, #4
    8774:	e8bd8800 	pop	{fp, pc}

00008778 <_Z41__static_initialization_and_destruction_0ii>:
_Z41__static_initialization_and_destruction_0ii():
/home/cf/ZCU/OS/practical/ex2/04_kernel/kernel/src/drivers/lcg.cpp:21
    8778:	e92d4800 	push	{fp, lr}
    877c:	e28db004 	add	fp, sp, #4
    8780:	e24dd008 	sub	sp, sp, #8
    8784:	e50b0008 	str	r0, [fp, #-8]
    8788:	e50b100c 	str	r1, [fp, #-12]
    878c:	e51b3008 	ldr	r3, [fp, #-8]
    8790:	e3530001 	cmp	r3, #1
    8794:	1a000005 	bne	87b0 <_Z41__static_initialization_and_destruction_0ii+0x38>
/home/cf/ZCU/OS/practical/ex2/04_kernel/kernel/src/drivers/lcg.cpp:21 (discriminator 1)
    8798:	e51b300c 	ldr	r3, [fp, #-12]
    879c:	e59f2018 	ldr	r2, [pc, #24]	; 87bc <_Z41__static_initialization_and_destruction_0ii+0x44>
    87a0:	e1530002 	cmp	r3, r2
    87a4:	1a000001 	bne	87b0 <_Z41__static_initialization_and_destruction_0ii+0x38>
/home/cf/ZCU/OS/practical/ex2/04_kernel/kernel/src/drivers/lcg.cpp:3
LCG lcgInstance;
    87a8:	e59f0010 	ldr	r0, [pc, #16]	; 87c0 <_Z41__static_initialization_and_destruction_0ii+0x48>
    87ac:	ebffff93 	bl	8600 <_ZN3LCGC1Ev>
/home/cf/ZCU/OS/practical/ex2/04_kernel/kernel/src/drivers/lcg.cpp:21
    87b0:	e320f000 	nop	{0}
    87b4:	e24bd004 	sub	sp, fp, #4
    87b8:	e8bd8800 	pop	{fp, pc}
    87bc:	0000ffff 	strdeq	pc, [r0], -pc	; <UNPREDICTABLE>
    87c0:	00008ce0 	andeq	r8, r0, r0, ror #25

000087c4 <_GLOBAL__sub_I_lcgInstance>:
_GLOBAL__sub_I_lcgInstance():
/home/cf/ZCU/OS/practical/ex2/04_kernel/kernel/src/drivers/lcg.cpp:21
    87c4:	e92d4800 	push	{fp, lr}
    87c8:	e28db004 	add	fp, sp, #4
    87cc:	e59f1008 	ldr	r1, [pc, #8]	; 87dc <_GLOBAL__sub_I_lcgInstance+0x18>
    87d0:	e3a00001 	mov	r0, #1
    87d4:	ebffffe7 	bl	8778 <_Z41__static_initialization_and_destruction_0ii>
    87d8:	e8bd8800 	pop	{fp, pc}
    87dc:	0000ffff 	strdeq	pc, [r0], -pc	; <UNPREDICTABLE>

000087e0 <_Z11wait_activei>:
_Z11wait_activei():
/home/cf/ZCU/OS/practical/ex2/04_kernel/kernel/src/main.cpp:7
#include <drivers/lcg.h>

// GPIO pin 47 je pripojeny na LED na desce (tzv. ACT LED)
constexpr uint32_t ACT_Pin = 47;

void wait_active(int ticks) {
    87e0:	e52db004 	push	{fp}		; (str fp, [sp, #-4]!)
    87e4:	e28db000 	add	fp, sp, #0
    87e8:	e24dd014 	sub	sp, sp, #20
    87ec:	e50b0010 	str	r0, [fp, #-16]
/home/cf/ZCU/OS/practical/ex2/04_kernel/kernel/src/main.cpp:10
	volatile unsigned int tim;

	for(tim = 0; tim < ticks; tim++)
    87f0:	e3a03000 	mov	r3, #0
    87f4:	e50b3008 	str	r3, [fp, #-8]
    87f8:	ea000002 	b	8808 <_Z11wait_activei+0x28>
/home/cf/ZCU/OS/practical/ex2/04_kernel/kernel/src/main.cpp:10 (discriminator 3)
    87fc:	e51b3008 	ldr	r3, [fp, #-8]
    8800:	e2833001 	add	r3, r3, #1
    8804:	e50b3008 	str	r3, [fp, #-8]
/home/cf/ZCU/OS/practical/ex2/04_kernel/kernel/src/main.cpp:10 (discriminator 1)
    8808:	e51b2008 	ldr	r2, [fp, #-8]
    880c:	e51b3010 	ldr	r3, [fp, #-16]
    8810:	e1520003 	cmp	r2, r3
    8814:	33a03001 	movcc	r3, #1
    8818:	23a03000 	movcs	r3, #0
    881c:	e6ef3073 	uxtb	r3, r3
    8820:	e3530000 	cmp	r3, #0
    8824:	1afffff4 	bne	87fc <_Z11wait_activei+0x1c>
/home/cf/ZCU/OS/practical/ex2/04_kernel/kernel/src/main.cpp:12
		;
}
    8828:	e320f000 	nop	{0}
    882c:	e320f000 	nop	{0}
    8830:	e28bd000 	add	sp, fp, #0
    8834:	e49db004 	pop	{fp}		; (ldr fp, [sp], #4)
    8838:	e12fff1e 	bx	lr

0000883c <_kernel_main>:
_kernel_main():
/home/cf/ZCU/OS/practical/ex2/04_kernel/kernel/src/main.cpp:15

extern "C" int _kernel_main(void)
{
    883c:	e92d4800 	push	{fp, lr}
    8840:	e28db004 	add	fp, sp, #4
    8844:	e24dd018 	sub	sp, sp, #24
/home/cf/ZCU/OS/practical/ex2/04_kernel/kernel/src/main.cpp:17
	// nastavime ACT LED pin na vystupni
	sGPIO.Set_GPIO_Function(ACT_Pin, NGPIO_Function::Output);
    8848:	e3a02001 	mov	r2, #1
    884c:	e3a0102f 	mov	r1, #47	; 0x2f
    8850:	e59f00ac 	ldr	r0, [pc, #172]	; 8904 <_kernel_main+0xc8>
    8854:	ebfffece 	bl	8394 <_ZN13CGPIO_Handler17Set_GPIO_FunctionEj14NGPIO_Function>
/home/cf/ZCU/OS/practical/ex2/04_kernel/kernel/src/main.cpp:19

	LCG lcg;
    8858:	e24b3018 	sub	r3, fp, #24
    885c:	e1a00003 	mov	r0, r3
    8860:	ebffff66 	bl	8600 <_ZN3LCGC1Ev>
/home/cf/ZCU/OS/practical/ex2/04_kernel/kernel/src/main.cpp:26
	
    while (1)
    {
		// for a range use: lower + lcg.get_next() % (upper - lower) - eg: 5000 + lcg.get_next % 5000; (<5000, 10000))
		// gen_number = lcg.get_next();
		gen_number = lcgInstance.get_next(); // testing lcgInstance
    8864:	e59f009c 	ldr	r0, [pc, #156]	; 8908 <_kernel_main+0xcc>
    8868:	ebffffa8 	bl	8710 <_ZN3LCG8get_nextEv>
    886c:	e1a03000 	mov	r3, r0
    8870:	e50b3008 	str	r3, [fp, #-8]
/home/cf/ZCU/OS/practical/ex2/04_kernel/kernel/src/main.cpp:27
		if (gen_number < 0) gen_number = -gen_number; // make sure sleep number is positive - to prevent active sleep for "0"
    8874:	e51b3008 	ldr	r3, [fp, #-8]
    8878:	e3530000 	cmp	r3, #0
    887c:	aa000002 	bge	888c <_kernel_main+0x50>
/home/cf/ZCU/OS/practical/ex2/04_kernel/kernel/src/main.cpp:27 (discriminator 1)
    8880:	e51b3008 	ldr	r3, [fp, #-8]
    8884:	e2633000 	rsb	r3, r3, #0
    8888:	e50b3008 	str	r3, [fp, #-8]
/home/cf/ZCU/OS/practical/ex2/04_kernel/kernel/src/main.cpp:28
		wait_active(gen_number % 10000000); // limit the number to 10 mil max
    888c:	e51b0008 	ldr	r0, [fp, #-8]
    8890:	e59f3074 	ldr	r3, [pc, #116]	; 890c <_kernel_main+0xd0>
    8894:	e0c32093 	smull	r2, r3, r3, r0
    8898:	e1a02b43 	asr	r2, r3, #22
    889c:	e1a03fc0 	asr	r3, r0, #31
    88a0:	e0421003 	sub	r1, r2, r3
    88a4:	e1a02001 	mov	r2, r1
    88a8:	e1a02282 	lsl	r2, r2, #5
    88ac:	e0422001 	sub	r2, r2, r1
    88b0:	e1a03302 	lsl	r3, r2, #6
    88b4:	e0433002 	sub	r3, r3, r2
    88b8:	e1a03183 	lsl	r3, r3, #3
    88bc:	e0833001 	add	r3, r3, r1
    88c0:	e1a02103 	lsl	r2, r3, #2
    88c4:	e0833002 	add	r3, r3, r2
    88c8:	e1a03383 	lsl	r3, r3, #7
    88cc:	e0401003 	sub	r1, r0, r3
    88d0:	e1a00001 	mov	r0, r1
    88d4:	ebffffc1 	bl	87e0 <_Z11wait_activei>
/home/cf/ZCU/OS/practical/ex2/04_kernel/kernel/src/main.cpp:31
		
		// zhasneme LED
		sGPIO.Set_Output(ACT_Pin, true);
    88d8:	e3a02001 	mov	r2, #1
    88dc:	e3a0102f 	mov	r1, #47	; 0x2f
    88e0:	e59f001c 	ldr	r0, [pc, #28]	; 8904 <_kernel_main+0xc8>
    88e4:	ebfffef3 	bl	84b8 <_ZN13CGPIO_Handler10Set_OutputEjb>
/home/cf/ZCU/OS/practical/ex2/04_kernel/kernel/src/main.cpp:33

		wait_active(2000000);
    88e8:	e59f0020 	ldr	r0, [pc, #32]	; 8910 <_kernel_main+0xd4>
    88ec:	ebffffbb 	bl	87e0 <_Z11wait_activei>
/home/cf/ZCU/OS/practical/ex2/04_kernel/kernel/src/main.cpp:36

		// rozsvitime LED
		sGPIO.Set_Output(ACT_Pin, false);
    88f0:	e3a02000 	mov	r2, #0
    88f4:	e3a0102f 	mov	r1, #47	; 0x2f
    88f8:	e59f0004 	ldr	r0, [pc, #4]	; 8904 <_kernel_main+0xc8>
    88fc:	ebfffeed 	bl	84b8 <_ZN13CGPIO_Handler10Set_OutputEjb>
/home/cf/ZCU/OS/practical/ex2/04_kernel/kernel/src/main.cpp:26
		gen_number = lcgInstance.get_next(); // testing lcgInstance
    8900:	eaffffd7 	b	8864 <_kernel_main+0x28>
    8904:	00008cdc 	ldrdeq	r8, [r0], -ip
    8908:	00008ce0 	andeq	r8, r0, r0, ror #25
    890c:	6b5fca6b 	blvs	17fb2c0 <_bss_end+0x17f25c0>
    8910:	001e8480 	andseq	r8, lr, r0, lsl #9

00008914 <_c_startup>:
_c_startup():
/home/cf/ZCU/OS/practical/ex2/04_kernel/kernel/src/startup.cpp:21
extern "C" dtor_ptr __DTOR_LIST__[0];
// konec pole destruktoru
extern "C" dtor_ptr __DTOR_END__[0];

extern "C" int _c_startup(void)
{
    8914:	e52db004 	push	{fp}		; (str fp, [sp, #-4]!)
    8918:	e28db000 	add	fp, sp, #0
    891c:	e24dd00c 	sub	sp, sp, #12
/home/cf/ZCU/OS/practical/ex2/04_kernel/kernel/src/startup.cpp:25
	int* i;
	
	// vynulujeme .bss sekci
	for (i = (int*)_bss_start; i < (int*)_bss_end; i++)
    8920:	e59f304c 	ldr	r3, [pc, #76]	; 8974 <_c_startup+0x60>
    8924:	e5933000 	ldr	r3, [r3]
    8928:	e50b3008 	str	r3, [fp, #-8]
    892c:	ea000005 	b	8948 <_c_startup+0x34>
/home/cf/ZCU/OS/practical/ex2/04_kernel/kernel/src/startup.cpp:26 (discriminator 3)
		*i = 0;
    8930:	e51b3008 	ldr	r3, [fp, #-8]
    8934:	e3a02000 	mov	r2, #0
    8938:	e5832000 	str	r2, [r3]
/home/cf/ZCU/OS/practical/ex2/04_kernel/kernel/src/startup.cpp:25 (discriminator 3)
	for (i = (int*)_bss_start; i < (int*)_bss_end; i++)
    893c:	e51b3008 	ldr	r3, [fp, #-8]
    8940:	e2833004 	add	r3, r3, #4
    8944:	e50b3008 	str	r3, [fp, #-8]
/home/cf/ZCU/OS/practical/ex2/04_kernel/kernel/src/startup.cpp:25 (discriminator 1)
    8948:	e59f3028 	ldr	r3, [pc, #40]	; 8978 <_c_startup+0x64>
    894c:	e5933000 	ldr	r3, [r3]
    8950:	e1a02003 	mov	r2, r3
    8954:	e51b3008 	ldr	r3, [fp, #-8]
    8958:	e1530002 	cmp	r3, r2
    895c:	3afffff3 	bcc	8930 <_c_startup+0x1c>
/home/cf/ZCU/OS/practical/ex2/04_kernel/kernel/src/startup.cpp:28
	
	return 0;
    8960:	e3a03000 	mov	r3, #0
/home/cf/ZCU/OS/practical/ex2/04_kernel/kernel/src/startup.cpp:29
}
    8964:	e1a00003 	mov	r0, r3
    8968:	e28bd000 	add	sp, fp, #0
    896c:	e49db004 	pop	{fp}		; (ldr fp, [sp], #4)
    8970:	e12fff1e 	bx	lr
    8974:	00008cdc 	ldrdeq	r8, [r0], -ip
    8978:	00008d00 	andeq	r8, r0, r0, lsl #26

0000897c <_cpp_startup>:
_cpp_startup():
/home/cf/ZCU/OS/practical/ex2/04_kernel/kernel/src/startup.cpp:32

extern "C" int _cpp_startup(void)
{
    897c:	e92d4800 	push	{fp, lr}
    8980:	e28db004 	add	fp, sp, #4
    8984:	e24dd008 	sub	sp, sp, #8
/home/cf/ZCU/OS/practical/ex2/04_kernel/kernel/src/startup.cpp:37
	ctor_ptr* fnptr;
	
	// zavolame konstruktory globalnich C++ trid
	// v poli __CTOR_LIST__ jsou ukazatele na vygenerovane stuby volani konstruktoru
	for (fnptr = __CTOR_LIST__; fnptr < __CTOR_END__; fnptr++)
    8988:	e59f303c 	ldr	r3, [pc, #60]	; 89cc <_cpp_startup+0x50>
    898c:	e50b3008 	str	r3, [fp, #-8]
    8990:	ea000005 	b	89ac <_cpp_startup+0x30>
/home/cf/ZCU/OS/practical/ex2/04_kernel/kernel/src/startup.cpp:38 (discriminator 3)
		(*fnptr)();
    8994:	e51b3008 	ldr	r3, [fp, #-8]
    8998:	e5933000 	ldr	r3, [r3]
    899c:	e12fff33 	blx	r3
/home/cf/ZCU/OS/practical/ex2/04_kernel/kernel/src/startup.cpp:37 (discriminator 3)
	for (fnptr = __CTOR_LIST__; fnptr < __CTOR_END__; fnptr++)
    89a0:	e51b3008 	ldr	r3, [fp, #-8]
    89a4:	e2833004 	add	r3, r3, #4
    89a8:	e50b3008 	str	r3, [fp, #-8]
/home/cf/ZCU/OS/practical/ex2/04_kernel/kernel/src/startup.cpp:37 (discriminator 1)
    89ac:	e51b3008 	ldr	r3, [fp, #-8]
    89b0:	e59f2018 	ldr	r2, [pc, #24]	; 89d0 <_cpp_startup+0x54>
    89b4:	e1530002 	cmp	r3, r2
    89b8:	3afffff5 	bcc	8994 <_cpp_startup+0x18>
/home/cf/ZCU/OS/practical/ex2/04_kernel/kernel/src/startup.cpp:40
	
	return 0;
    89bc:	e3a03000 	mov	r3, #0
/home/cf/ZCU/OS/practical/ex2/04_kernel/kernel/src/startup.cpp:41
}
    89c0:	e1a00003 	mov	r0, r3
    89c4:	e24bd004 	sub	sp, fp, #4
    89c8:	e8bd8800 	pop	{fp, pc}
    89cc:	00008cd4 	ldrdeq	r8, [r0], -r4
    89d0:	00008cdc 	ldrdeq	r8, [r0], -ip

000089d4 <_cpp_shutdown>:
_cpp_shutdown():
/home/cf/ZCU/OS/practical/ex2/04_kernel/kernel/src/startup.cpp:44

extern "C" int _cpp_shutdown(void)
{
    89d4:	e92d4800 	push	{fp, lr}
    89d8:	e28db004 	add	fp, sp, #4
    89dc:	e24dd008 	sub	sp, sp, #8
/home/cf/ZCU/OS/practical/ex2/04_kernel/kernel/src/startup.cpp:48
	dtor_ptr* fnptr;
	
	// zavolame destruktory globalnich C++ trid
	for (fnptr = __DTOR_LIST__; fnptr < __DTOR_END__; fnptr++)
    89e0:	e59f303c 	ldr	r3, [pc, #60]	; 8a24 <_cpp_shutdown+0x50>
    89e4:	e50b3008 	str	r3, [fp, #-8]
    89e8:	ea000005 	b	8a04 <_cpp_shutdown+0x30>
/home/cf/ZCU/OS/practical/ex2/04_kernel/kernel/src/startup.cpp:49 (discriminator 3)
		(*fnptr)();
    89ec:	e51b3008 	ldr	r3, [fp, #-8]
    89f0:	e5933000 	ldr	r3, [r3]
    89f4:	e12fff33 	blx	r3
/home/cf/ZCU/OS/practical/ex2/04_kernel/kernel/src/startup.cpp:48 (discriminator 3)
	for (fnptr = __DTOR_LIST__; fnptr < __DTOR_END__; fnptr++)
    89f8:	e51b3008 	ldr	r3, [fp, #-8]
    89fc:	e2833004 	add	r3, r3, #4
    8a00:	e50b3008 	str	r3, [fp, #-8]
/home/cf/ZCU/OS/practical/ex2/04_kernel/kernel/src/startup.cpp:48 (discriminator 1)
    8a04:	e51b3008 	ldr	r3, [fp, #-8]
    8a08:	e59f2018 	ldr	r2, [pc, #24]	; 8a28 <_cpp_shutdown+0x54>
    8a0c:	e1530002 	cmp	r3, r2
    8a10:	3afffff5 	bcc	89ec <_cpp_shutdown+0x18>
/home/cf/ZCU/OS/practical/ex2/04_kernel/kernel/src/startup.cpp:51
	
	return 0;
    8a14:	e3a03000 	mov	r3, #0
/home/cf/ZCU/OS/practical/ex2/04_kernel/kernel/src/startup.cpp:52
}
    8a18:	e1a00003 	mov	r0, r3
    8a1c:	e24bd004 	sub	sp, fp, #4
    8a20:	e8bd8800 	pop	{fp, pc}
    8a24:	00008cdc 	ldrdeq	r8, [r0], -ip
    8a28:	00008cdc 	ldrdeq	r8, [r0], -ip

00008a2c <__divsi3>:
__divsi3():
/builddir/build/BUILD/arm-none-eabi-gcc-cs-12.2.0/gcc-arm-none-eabi/arm-none-eabi/arm/v5te/hard/libgcc/../../../../../../gcc-12.2.0/libgcc/config/arm/lib1funcs.S:1297
    8a2c:	e3510000 	cmp	r1, #0
/builddir/build/BUILD/arm-none-eabi-gcc-cs-12.2.0/gcc-arm-none-eabi/arm-none-eabi/arm/v5te/hard/libgcc/../../../../../../gcc-12.2.0/libgcc/config/arm/lib1funcs.S:1298
    8a30:	0a000081 	beq	8c3c <.divsi3_skip_div0_test+0x208>

00008a34 <.divsi3_skip_div0_test>:
/builddir/build/BUILD/arm-none-eabi-gcc-cs-12.2.0/gcc-arm-none-eabi/arm-none-eabi/arm/v5te/hard/libgcc/../../../../../../gcc-12.2.0/libgcc/config/arm/lib1funcs.S:1300
    8a34:	e020c001 	eor	ip, r0, r1
/builddir/build/BUILD/arm-none-eabi-gcc-cs-12.2.0/gcc-arm-none-eabi/arm-none-eabi/arm/v5te/hard/libgcc/../../../../../../gcc-12.2.0/libgcc/config/arm/lib1funcs.S:1302
    8a38:	42611000 	rsbmi	r1, r1, #0
/builddir/build/BUILD/arm-none-eabi-gcc-cs-12.2.0/gcc-arm-none-eabi/arm-none-eabi/arm/v5te/hard/libgcc/../../../../../../gcc-12.2.0/libgcc/config/arm/lib1funcs.S:1303
    8a3c:	e2512001 	subs	r2, r1, #1
/builddir/build/BUILD/arm-none-eabi-gcc-cs-12.2.0/gcc-arm-none-eabi/arm-none-eabi/arm/v5te/hard/libgcc/../../../../../../gcc-12.2.0/libgcc/config/arm/lib1funcs.S:1304
    8a40:	0a000070 	beq	8c08 <.divsi3_skip_div0_test+0x1d4>
/builddir/build/BUILD/arm-none-eabi-gcc-cs-12.2.0/gcc-arm-none-eabi/arm-none-eabi/arm/v5te/hard/libgcc/../../../../../../gcc-12.2.0/libgcc/config/arm/lib1funcs.S:1305
    8a44:	e1b03000 	movs	r3, r0
/builddir/build/BUILD/arm-none-eabi-gcc-cs-12.2.0/gcc-arm-none-eabi/arm-none-eabi/arm/v5te/hard/libgcc/../../../../../../gcc-12.2.0/libgcc/config/arm/lib1funcs.S:1307
    8a48:	42603000 	rsbmi	r3, r0, #0
/builddir/build/BUILD/arm-none-eabi-gcc-cs-12.2.0/gcc-arm-none-eabi/arm-none-eabi/arm/v5te/hard/libgcc/../../../../../../gcc-12.2.0/libgcc/config/arm/lib1funcs.S:1308
    8a4c:	e1530001 	cmp	r3, r1
/builddir/build/BUILD/arm-none-eabi-gcc-cs-12.2.0/gcc-arm-none-eabi/arm-none-eabi/arm/v5te/hard/libgcc/../../../../../../gcc-12.2.0/libgcc/config/arm/lib1funcs.S:1309
    8a50:	9a00006f 	bls	8c14 <.divsi3_skip_div0_test+0x1e0>
/builddir/build/BUILD/arm-none-eabi-gcc-cs-12.2.0/gcc-arm-none-eabi/arm-none-eabi/arm/v5te/hard/libgcc/../../../../../../gcc-12.2.0/libgcc/config/arm/lib1funcs.S:1310
    8a54:	e1110002 	tst	r1, r2
/builddir/build/BUILD/arm-none-eabi-gcc-cs-12.2.0/gcc-arm-none-eabi/arm-none-eabi/arm/v5te/hard/libgcc/../../../../../../gcc-12.2.0/libgcc/config/arm/lib1funcs.S:1311
    8a58:	0a000071 	beq	8c24 <.divsi3_skip_div0_test+0x1f0>
/builddir/build/BUILD/arm-none-eabi-gcc-cs-12.2.0/gcc-arm-none-eabi/arm-none-eabi/arm/v5te/hard/libgcc/../../../../../../gcc-12.2.0/libgcc/config/arm/lib1funcs.S:1313
    8a5c:	e16f2f13 	clz	r2, r3
    8a60:	e16f0f11 	clz	r0, r1
    8a64:	e0402002 	sub	r2, r0, r2
    8a68:	e272201f 	rsbs	r2, r2, #31
    8a6c:	10822082 	addne	r2, r2, r2, lsl #1
    8a70:	e3a00000 	mov	r0, #0
    8a74:	108ff102 	addne	pc, pc, r2, lsl #2
    8a78:	e1a00000 	nop			; (mov r0, r0)
    8a7c:	e1530f81 	cmp	r3, r1, lsl #31
    8a80:	e0a00000 	adc	r0, r0, r0
    8a84:	20433f81 	subcs	r3, r3, r1, lsl #31
    8a88:	e1530f01 	cmp	r3, r1, lsl #30
    8a8c:	e0a00000 	adc	r0, r0, r0
    8a90:	20433f01 	subcs	r3, r3, r1, lsl #30
    8a94:	e1530e81 	cmp	r3, r1, lsl #29
    8a98:	e0a00000 	adc	r0, r0, r0
    8a9c:	20433e81 	subcs	r3, r3, r1, lsl #29
    8aa0:	e1530e01 	cmp	r3, r1, lsl #28
    8aa4:	e0a00000 	adc	r0, r0, r0
    8aa8:	20433e01 	subcs	r3, r3, r1, lsl #28
    8aac:	e1530d81 	cmp	r3, r1, lsl #27
    8ab0:	e0a00000 	adc	r0, r0, r0
    8ab4:	20433d81 	subcs	r3, r3, r1, lsl #27
    8ab8:	e1530d01 	cmp	r3, r1, lsl #26
    8abc:	e0a00000 	adc	r0, r0, r0
    8ac0:	20433d01 	subcs	r3, r3, r1, lsl #26
    8ac4:	e1530c81 	cmp	r3, r1, lsl #25
    8ac8:	e0a00000 	adc	r0, r0, r0
    8acc:	20433c81 	subcs	r3, r3, r1, lsl #25
    8ad0:	e1530c01 	cmp	r3, r1, lsl #24
    8ad4:	e0a00000 	adc	r0, r0, r0
    8ad8:	20433c01 	subcs	r3, r3, r1, lsl #24
    8adc:	e1530b81 	cmp	r3, r1, lsl #23
    8ae0:	e0a00000 	adc	r0, r0, r0
    8ae4:	20433b81 	subcs	r3, r3, r1, lsl #23
    8ae8:	e1530b01 	cmp	r3, r1, lsl #22
    8aec:	e0a00000 	adc	r0, r0, r0
    8af0:	20433b01 	subcs	r3, r3, r1, lsl #22
    8af4:	e1530a81 	cmp	r3, r1, lsl #21
    8af8:	e0a00000 	adc	r0, r0, r0
    8afc:	20433a81 	subcs	r3, r3, r1, lsl #21
    8b00:	e1530a01 	cmp	r3, r1, lsl #20
    8b04:	e0a00000 	adc	r0, r0, r0
    8b08:	20433a01 	subcs	r3, r3, r1, lsl #20
    8b0c:	e1530981 	cmp	r3, r1, lsl #19
    8b10:	e0a00000 	adc	r0, r0, r0
    8b14:	20433981 	subcs	r3, r3, r1, lsl #19
    8b18:	e1530901 	cmp	r3, r1, lsl #18
    8b1c:	e0a00000 	adc	r0, r0, r0
    8b20:	20433901 	subcs	r3, r3, r1, lsl #18
    8b24:	e1530881 	cmp	r3, r1, lsl #17
    8b28:	e0a00000 	adc	r0, r0, r0
    8b2c:	20433881 	subcs	r3, r3, r1, lsl #17
    8b30:	e1530801 	cmp	r3, r1, lsl #16
    8b34:	e0a00000 	adc	r0, r0, r0
    8b38:	20433801 	subcs	r3, r3, r1, lsl #16
    8b3c:	e1530781 	cmp	r3, r1, lsl #15
    8b40:	e0a00000 	adc	r0, r0, r0
    8b44:	20433781 	subcs	r3, r3, r1, lsl #15
    8b48:	e1530701 	cmp	r3, r1, lsl #14
    8b4c:	e0a00000 	adc	r0, r0, r0
    8b50:	20433701 	subcs	r3, r3, r1, lsl #14
    8b54:	e1530681 	cmp	r3, r1, lsl #13
    8b58:	e0a00000 	adc	r0, r0, r0
    8b5c:	20433681 	subcs	r3, r3, r1, lsl #13
    8b60:	e1530601 	cmp	r3, r1, lsl #12
    8b64:	e0a00000 	adc	r0, r0, r0
    8b68:	20433601 	subcs	r3, r3, r1, lsl #12
    8b6c:	e1530581 	cmp	r3, r1, lsl #11
    8b70:	e0a00000 	adc	r0, r0, r0
    8b74:	20433581 	subcs	r3, r3, r1, lsl #11
    8b78:	e1530501 	cmp	r3, r1, lsl #10
    8b7c:	e0a00000 	adc	r0, r0, r0
    8b80:	20433501 	subcs	r3, r3, r1, lsl #10
    8b84:	e1530481 	cmp	r3, r1, lsl #9
    8b88:	e0a00000 	adc	r0, r0, r0
    8b8c:	20433481 	subcs	r3, r3, r1, lsl #9
    8b90:	e1530401 	cmp	r3, r1, lsl #8
    8b94:	e0a00000 	adc	r0, r0, r0
    8b98:	20433401 	subcs	r3, r3, r1, lsl #8
    8b9c:	e1530381 	cmp	r3, r1, lsl #7
    8ba0:	e0a00000 	adc	r0, r0, r0
    8ba4:	20433381 	subcs	r3, r3, r1, lsl #7
    8ba8:	e1530301 	cmp	r3, r1, lsl #6
    8bac:	e0a00000 	adc	r0, r0, r0
    8bb0:	20433301 	subcs	r3, r3, r1, lsl #6
    8bb4:	e1530281 	cmp	r3, r1, lsl #5
    8bb8:	e0a00000 	adc	r0, r0, r0
    8bbc:	20433281 	subcs	r3, r3, r1, lsl #5
    8bc0:	e1530201 	cmp	r3, r1, lsl #4
    8bc4:	e0a00000 	adc	r0, r0, r0
    8bc8:	20433201 	subcs	r3, r3, r1, lsl #4
    8bcc:	e1530181 	cmp	r3, r1, lsl #3
    8bd0:	e0a00000 	adc	r0, r0, r0
    8bd4:	20433181 	subcs	r3, r3, r1, lsl #3
    8bd8:	e1530101 	cmp	r3, r1, lsl #2
    8bdc:	e0a00000 	adc	r0, r0, r0
    8be0:	20433101 	subcs	r3, r3, r1, lsl #2
    8be4:	e1530081 	cmp	r3, r1, lsl #1
    8be8:	e0a00000 	adc	r0, r0, r0
    8bec:	20433081 	subcs	r3, r3, r1, lsl #1
    8bf0:	e1530001 	cmp	r3, r1
    8bf4:	e0a00000 	adc	r0, r0, r0
    8bf8:	20433001 	subcs	r3, r3, r1
/builddir/build/BUILD/arm-none-eabi-gcc-cs-12.2.0/gcc-arm-none-eabi/arm-none-eabi/arm/v5te/hard/libgcc/../../../../../../gcc-12.2.0/libgcc/config/arm/lib1funcs.S:1315
    8bfc:	e35c0000 	cmp	ip, #0
/builddir/build/BUILD/arm-none-eabi-gcc-cs-12.2.0/gcc-arm-none-eabi/arm-none-eabi/arm/v5te/hard/libgcc/../../../../../../gcc-12.2.0/libgcc/config/arm/lib1funcs.S:1317
    8c00:	42600000 	rsbmi	r0, r0, #0
/builddir/build/BUILD/arm-none-eabi-gcc-cs-12.2.0/gcc-arm-none-eabi/arm-none-eabi/arm/v5te/hard/libgcc/../../../../../../gcc-12.2.0/libgcc/config/arm/lib1funcs.S:1318
    8c04:	e12fff1e 	bx	lr
/builddir/build/BUILD/arm-none-eabi-gcc-cs-12.2.0/gcc-arm-none-eabi/arm-none-eabi/arm/v5te/hard/libgcc/../../../../../../gcc-12.2.0/libgcc/config/arm/lib1funcs.S:1320
    8c08:	e13c0000 	teq	ip, r0
/builddir/build/BUILD/arm-none-eabi-gcc-cs-12.2.0/gcc-arm-none-eabi/arm-none-eabi/arm/v5te/hard/libgcc/../../../../../../gcc-12.2.0/libgcc/config/arm/lib1funcs.S:1322
    8c0c:	42600000 	rsbmi	r0, r0, #0
/builddir/build/BUILD/arm-none-eabi-gcc-cs-12.2.0/gcc-arm-none-eabi/arm-none-eabi/arm/v5te/hard/libgcc/../../../../../../gcc-12.2.0/libgcc/config/arm/lib1funcs.S:1323
    8c10:	e12fff1e 	bx	lr
/builddir/build/BUILD/arm-none-eabi-gcc-cs-12.2.0/gcc-arm-none-eabi/arm-none-eabi/arm/v5te/hard/libgcc/../../../../../../gcc-12.2.0/libgcc/config/arm/lib1funcs.S:1326
    8c14:	33a00000 	movcc	r0, #0
/builddir/build/BUILD/arm-none-eabi-gcc-cs-12.2.0/gcc-arm-none-eabi/arm-none-eabi/arm/v5te/hard/libgcc/../../../../../../gcc-12.2.0/libgcc/config/arm/lib1funcs.S:1328
    8c18:	01a00fcc 	asreq	r0, ip, #31
/builddir/build/BUILD/arm-none-eabi-gcc-cs-12.2.0/gcc-arm-none-eabi/arm-none-eabi/arm/v5te/hard/libgcc/../../../../../../gcc-12.2.0/libgcc/config/arm/lib1funcs.S:1329
    8c1c:	03800001 	orreq	r0, r0, #1
/builddir/build/BUILD/arm-none-eabi-gcc-cs-12.2.0/gcc-arm-none-eabi/arm-none-eabi/arm/v5te/hard/libgcc/../../../../../../gcc-12.2.0/libgcc/config/arm/lib1funcs.S:1330
    8c20:	e12fff1e 	bx	lr
/builddir/build/BUILD/arm-none-eabi-gcc-cs-12.2.0/gcc-arm-none-eabi/arm-none-eabi/arm/v5te/hard/libgcc/../../../../../../gcc-12.2.0/libgcc/config/arm/lib1funcs.S:1332
    8c24:	e16f2f11 	clz	r2, r1
    8c28:	e262201f 	rsb	r2, r2, #31
/builddir/build/BUILD/arm-none-eabi-gcc-cs-12.2.0/gcc-arm-none-eabi/arm-none-eabi/arm/v5te/hard/libgcc/../../../../../../gcc-12.2.0/libgcc/config/arm/lib1funcs.S:1334
    8c2c:	e35c0000 	cmp	ip, #0
/builddir/build/BUILD/arm-none-eabi-gcc-cs-12.2.0/gcc-arm-none-eabi/arm-none-eabi/arm/v5te/hard/libgcc/../../../../../../gcc-12.2.0/libgcc/config/arm/lib1funcs.S:1335
    8c30:	e1a00233 	lsr	r0, r3, r2
/builddir/build/BUILD/arm-none-eabi-gcc-cs-12.2.0/gcc-arm-none-eabi/arm-none-eabi/arm/v5te/hard/libgcc/../../../../../../gcc-12.2.0/libgcc/config/arm/lib1funcs.S:1337
    8c34:	42600000 	rsbmi	r0, r0, #0
/builddir/build/BUILD/arm-none-eabi-gcc-cs-12.2.0/gcc-arm-none-eabi/arm-none-eabi/arm/v5te/hard/libgcc/../../../../../../gcc-12.2.0/libgcc/config/arm/lib1funcs.S:1338
    8c38:	e12fff1e 	bx	lr
/builddir/build/BUILD/arm-none-eabi-gcc-cs-12.2.0/gcc-arm-none-eabi/arm-none-eabi/arm/v5te/hard/libgcc/../../../../../../gcc-12.2.0/libgcc/config/arm/lib1funcs.S:1342
    8c3c:	e3500000 	cmp	r0, #0
    8c40:	c3e00102 	mvngt	r0, #-2147483648	; 0x80000000
    8c44:	b3a00102 	movlt	r0, #-2147483648	; 0x80000000
    8c48:	ea000007 	b	8c6c <__aeabi_idiv0>

00008c4c <__aeabi_idivmod>:
__aeabi_idivmod():
/builddir/build/BUILD/arm-none-eabi-gcc-cs-12.2.0/gcc-arm-none-eabi/arm-none-eabi/arm/v5te/hard/libgcc/../../../../../../gcc-12.2.0/libgcc/config/arm/lib1funcs.S:1373
    8c4c:	e3510000 	cmp	r1, #0
/builddir/build/BUILD/arm-none-eabi-gcc-cs-12.2.0/gcc-arm-none-eabi/arm-none-eabi/arm/v5te/hard/libgcc/../../../../../../gcc-12.2.0/libgcc/config/arm/lib1funcs.S:1374
    8c50:	0afffff9 	beq	8c3c <.divsi3_skip_div0_test+0x208>
/builddir/build/BUILD/arm-none-eabi-gcc-cs-12.2.0/gcc-arm-none-eabi/arm-none-eabi/arm/v5te/hard/libgcc/../../../../../../gcc-12.2.0/libgcc/config/arm/lib1funcs.S:1375
    8c54:	e92d4003 	push	{r0, r1, lr}
/builddir/build/BUILD/arm-none-eabi-gcc-cs-12.2.0/gcc-arm-none-eabi/arm-none-eabi/arm/v5te/hard/libgcc/../../../../../../gcc-12.2.0/libgcc/config/arm/lib1funcs.S:1376
    8c58:	ebffff75 	bl	8a34 <.divsi3_skip_div0_test>
/builddir/build/BUILD/arm-none-eabi-gcc-cs-12.2.0/gcc-arm-none-eabi/arm-none-eabi/arm/v5te/hard/libgcc/../../../../../../gcc-12.2.0/libgcc/config/arm/lib1funcs.S:1377
    8c5c:	e8bd4006 	pop	{r1, r2, lr}
/builddir/build/BUILD/arm-none-eabi-gcc-cs-12.2.0/gcc-arm-none-eabi/arm-none-eabi/arm/v5te/hard/libgcc/../../../../../../gcc-12.2.0/libgcc/config/arm/lib1funcs.S:1378
    8c60:	e0030092 	mul	r3, r2, r0
/builddir/build/BUILD/arm-none-eabi-gcc-cs-12.2.0/gcc-arm-none-eabi/arm-none-eabi/arm/v5te/hard/libgcc/../../../../../../gcc-12.2.0/libgcc/config/arm/lib1funcs.S:1379
    8c64:	e0411003 	sub	r1, r1, r3
/builddir/build/BUILD/arm-none-eabi-gcc-cs-12.2.0/gcc-arm-none-eabi/arm-none-eabi/arm/v5te/hard/libgcc/../../../../../../gcc-12.2.0/libgcc/config/arm/lib1funcs.S:1380
    8c68:	e12fff1e 	bx	lr

00008c6c <__aeabi_idiv0>:
__aeabi_ldiv0():
/builddir/build/BUILD/arm-none-eabi-gcc-cs-12.2.0/gcc-arm-none-eabi/arm-none-eabi/arm/v5te/hard/libgcc/../../../../../../gcc-12.2.0/libgcc/config/arm/lib1funcs.S:1466
    8c6c:	e12fff1e 	bx	lr
